; Listing generated by Microsoft (R) Optimizing Compiler Version 19.00.24213.1 

	TITLE	C:\Users\choze\Documents\GitHub\KPI-computer-engineering\3 семестр\Системное программирование\Лабы\2\Вариант 1\lab2\main.cpp
	.686P
	.XMM
	include listing.inc
	.model	flat

INCLUDELIB MSVCRTD
INCLUDELIB OLDNAMES

PUBLIC	?A@@3PAHA					; A
PUBLIC	?k@@3HA						; k
_BSS	SEGMENT
?A@@3PAHA DD	08H DUP (?)				; A
?k@@3HA	DD	01H DUP (?)				; k
_BSS	ENDS
PUBLIC	?__empty_global_delete@@YAXPAX@Z		; __empty_global_delete
PUBLIC	?__empty_global_delete@@YAXPAXI@Z		; __empty_global_delete
PUBLIC	___local_stdio_printf_options
PUBLIC	__vfprintf_l
PUBLIC	??$__vcrt_va_start_verify_argument_type@QBD@@YAXXZ ; __vcrt_va_start_verify_argument_type<char const * const>
PUBLIC	_printf
PUBLIC	?length@?$char_traits@D@std@@SAIPBD@Z		; std::char_traits<char>::length
PUBLIC	?eq_int_type@?$char_traits@D@std@@SA_NABH0@Z	; std::char_traits<char>::eq_int_type
PUBLIC	?eof@?$char_traits@D@std@@SAHXZ			; std::char_traits<char>::eof
PUBLIC	?asm_func@@YAHXZ				; asm_func
PUBLIC	?simple_func@@YAHXZ				; simple_func
PUBLIC	_main
PUBLIC	??$?6U?$char_traits@D@std@@@std@@YAAAV?$basic_ostream@DU?$char_traits@D@std@@@0@AAV10@PBD@Z ; std::operator<<<std::char_traits<char> >
PUBLIC	??0_Sentry_base@?$basic_ostream@DU?$char_traits@D@std@@@std@@QAE@AAV12@@Z ; std::basic_ostream<char,std::char_traits<char> >::_Sentry_base::_Sentry_base
PUBLIC	??1_Sentry_base@?$basic_ostream@DU?$char_traits@D@std@@@std@@QAE@XZ ; std::basic_ostream<char,std::char_traits<char> >::_Sentry_base::~_Sentry_base
PUBLIC	??0sentry@?$basic_ostream@DU?$char_traits@D@std@@@std@@QAE@AAV12@@Z ; std::basic_ostream<char,std::char_traits<char> >::sentry::sentry
PUBLIC	??1sentry@?$basic_ostream@DU?$char_traits@D@std@@@std@@QAE@XZ ; std::basic_ostream<char,std::char_traits<char> >::sentry::~sentry
PUBLIC	??Bsentry@?$basic_ostream@DU?$char_traits@D@std@@@std@@QBE_NXZ ; std::basic_ostream<char,std::char_traits<char> >::sentry::operator bool
PUBLIC	?_OptionsStorage@?1??__local_stdio_printf_options@@9@4_KA ; `__local_stdio_printf_options'::`2'::_OptionsStorage
PUBLIC	??_C@_03JDANDILB@?$CFd?5?$AA@			; `string'
PUBLIC	??_C@_01EEMJAFIK@?6?$AA@			; `string'
PUBLIC	??_C@_06GJJKBDMB@ms?5?6?5?6?$AA@		; `string'
PUBLIC	??_C@_0BD@JJJFPAHA@Time?5without?5asm?3?5?$AA@	; `string'
PUBLIC	??_C@_0L@CMGEOIIB@Asm?5time?3?5?$AA@		; `string'
EXTRN	__imp____acrt_iob_func:PROC
EXTRN	__imp____stdio_common_vfprintf:PROC
EXTRN	_strlen:PROC
EXTRN	__imp_?uncaught_exception@std@@YA_NXZ:PROC
EXTRN	__imp_?good@ios_base@std@@QBE_NXZ:PROC
EXTRN	__imp_?flags@ios_base@std@@QBEHXZ:PROC
EXTRN	__imp_?width@ios_base@std@@QBE_JXZ:PROC
EXTRN	__imp_?width@ios_base@std@@QAE_J_J@Z:PROC
EXTRN	__imp_?sputc@?$basic_streambuf@DU?$char_traits@D@std@@@std@@QAEHD@Z:PROC
EXTRN	__imp_?sputn@?$basic_streambuf@DU?$char_traits@D@std@@@std@@QAE_JPBD_J@Z:PROC
EXTRN	__imp_?setstate@?$basic_ios@DU?$char_traits@D@std@@@std@@QAEXH_N@Z:PROC
EXTRN	__imp_?tie@?$basic_ios@DU?$char_traits@D@std@@@std@@QBEPAV?$basic_ostream@DU?$char_traits@D@std@@@2@XZ:PROC
EXTRN	__imp_?rdbuf@?$basic_ios@DU?$char_traits@D@std@@@std@@QBEPAV?$basic_streambuf@DU?$char_traits@D@std@@@2@XZ:PROC
EXTRN	__imp_?fill@?$basic_ios@DU?$char_traits@D@std@@@std@@QBEDXZ:PROC
EXTRN	__imp_?_Osfx@?$basic_ostream@DU?$char_traits@D@std@@@std@@QAEXXZ:PROC
EXTRN	__imp_??6?$basic_ostream@DU?$char_traits@D@std@@@std@@QAEAAV01@J@Z:PROC
EXTRN	__imp_?flush@?$basic_ostream@DU?$char_traits@D@std@@@std@@QAEAAV12@XZ:PROC
EXTRN	__imp__clock:PROC
EXTRN	@_RTC_CheckStackVars@8:PROC
EXTRN	@__security_check_cookie@4:PROC
EXTRN	__RTC_CheckEsp:PROC
EXTRN	__RTC_InitBase:PROC
EXTRN	__RTC_Shutdown:PROC
EXTRN	___CxxFrameHandler3:PROC
EXTRN	__imp_?cout@std@@3V?$basic_ostream@DU?$char_traits@D@std@@@1@A:BYTE
EXTRN	___security_cookie:DWORD
;	COMDAT ?_OptionsStorage@?1??__local_stdio_printf_options@@9@4_KA
_BSS	SEGMENT
?_OptionsStorage@?1??__local_stdio_printf_options@@9@4_KA DQ 01H DUP (?) ; `__local_stdio_printf_options'::`2'::_OptionsStorage
_BSS	ENDS
;	COMDAT rtc$TMZ
rtc$TMZ	SEGMENT
__RTC_Shutdown.rtc$TMZ DD FLAT:__RTC_Shutdown
rtc$TMZ	ENDS
;	COMDAT rtc$IMZ
rtc$IMZ	SEGMENT
__RTC_InitBase.rtc$IMZ DD FLAT:__RTC_InitBase
rtc$IMZ	ENDS
;	COMDAT ??_C@_0L@CMGEOIIB@Asm?5time?3?5?$AA@
CONST	SEGMENT
??_C@_0L@CMGEOIIB@Asm?5time?3?5?$AA@ DB 'Asm time: ', 00H ; `string'
CONST	ENDS
;	COMDAT ??_C@_0BD@JJJFPAHA@Time?5without?5asm?3?5?$AA@
CONST	SEGMENT
??_C@_0BD@JJJFPAHA@Time?5without?5asm?3?5?$AA@ DB 'Time without asm: ', 00H ; `string'
CONST	ENDS
;	COMDAT ??_C@_06GJJKBDMB@ms?5?6?5?6?$AA@
CONST	SEGMENT
??_C@_06GJJKBDMB@ms?5?6?5?6?$AA@ DB 'ms ', 0aH, ' ', 0aH, 00H ; `string'
CONST	ENDS
;	COMDAT ??_C@_01EEMJAFIK@?6?$AA@
CONST	SEGMENT
??_C@_01EEMJAFIK@?6?$AA@ DB 0aH, 00H			; `string'
CONST	ENDS
;	COMDAT ??_C@_03JDANDILB@?$CFd?5?$AA@
CONST	SEGMENT
??_C@_03JDANDILB@?$CFd?5?$AA@ DB '%d ', 00H		; `string'
CONST	ENDS
;	COMDAT xdata$x
xdata$x	SEGMENT
__ehfuncinfo$??1sentry@?$basic_ostream@DU?$char_traits@D@std@@@std@@QAE@XZ DD 019930522H
	DD	00H
	DD	00H
	DD	2 DUP(00H)
	DD	2 DUP(00H)
	DD	00H
	DD	05H
xdata$x	ENDS
;	COMDAT xdata$x
xdata$x	SEGMENT
__unwindtable$??0sentry@?$basic_ostream@DU?$char_traits@D@std@@@std@@QAE@AAV12@@Z DD 0ffffffffH
	DD	FLAT:__unwindfunclet$??0sentry@?$basic_ostream@DU?$char_traits@D@std@@@std@@QAE@AAV12@@Z$0
__ehfuncinfo$??0sentry@?$basic_ostream@DU?$char_traits@D@std@@@std@@QAE@AAV12@@Z DD 019930522H
	DD	01H
	DD	FLAT:__unwindtable$??0sentry@?$basic_ostream@DU?$char_traits@D@std@@@std@@QAE@AAV12@@Z
	DD	2 DUP(00H)
	DD	2 DUP(00H)
	DD	00H
	DD	01H
xdata$x	ENDS
;	COMDAT xdata$x
xdata$x	SEGMENT
__ehfuncinfo$??1_Sentry_base@?$basic_ostream@DU?$char_traits@D@std@@@std@@QAE@XZ DD 019930522H
	DD	00H
	DD	00H
	DD	2 DUP(00H)
	DD	2 DUP(00H)
	DD	00H
	DD	05H
xdata$x	ENDS
;	COMDAT xdata$x
xdata$x	SEGMENT
__catchsym$??$?6U?$char_traits@D@std@@@std@@YAAAV?$basic_ostream@DU?$char_traits@D@std@@@0@AAV10@PBD@Z$3 DD 040H
	DD	00H
	DD	00H
	DD	FLAT:__catch$??$?6U?$char_traits@D@std@@@std@@YAAAV?$basic_ostream@DU?$char_traits@D@std@@@0@AAV10@PBD@Z$0
__tryblocktable$??$?6U?$char_traits@D@std@@@std@@YAAAV?$basic_ostream@DU?$char_traits@D@std@@@0@AAV10@PBD@Z DD 01H
	DD	01H
	DD	02H
	DD	01H
	DD	FLAT:__catchsym$??$?6U?$char_traits@D@std@@@std@@YAAAV?$basic_ostream@DU?$char_traits@D@std@@@0@AAV10@PBD@Z$3
__unwindtable$??$?6U?$char_traits@D@std@@@std@@YAAAV?$basic_ostream@DU?$char_traits@D@std@@@0@AAV10@PBD@Z DD 0ffffffffH
	DD	FLAT:__unwindfunclet$??$?6U?$char_traits@D@std@@@std@@YAAAV?$basic_ostream@DU?$char_traits@D@std@@@0@AAV10@PBD@Z$2
	DD	00H
	DD	00H
	DD	00H
	DD	00H
__ehfuncinfo$??$?6U?$char_traits@D@std@@@std@@YAAAV?$basic_ostream@DU?$char_traits@D@std@@@0@AAV10@PBD@Z DD 019930522H
	DD	03H
	DD	FLAT:__unwindtable$??$?6U?$char_traits@D@std@@@std@@YAAAV?$basic_ostream@DU?$char_traits@D@std@@@0@AAV10@PBD@Z
	DD	01H
	DD	FLAT:__tryblocktable$??$?6U?$char_traits@D@std@@@std@@YAAAV?$basic_ostream@DU?$char_traits@D@std@@@0@AAV10@PBD@Z
	DD	2 DUP(00H)
	DD	00H
	DD	01H
xdata$x	ENDS
; Function compile flags: /Odtp /RTCsu /ZI
; File c:\program files (x86)\microsoft visual studio 14.0\vc\include\ostream
;	COMDAT ??Bsentry@?$basic_ostream@DU?$char_traits@D@std@@@std@@QBE_NXZ
_TEXT	SEGMENT
_this$ = -8						; size = 4
??Bsentry@?$basic_ostream@DU?$char_traits@D@std@@@std@@QBE_NXZ PROC ; std::basic_ostream<char,std::char_traits<char> >::sentry::operator bool, COMDAT
; _this$ = ecx

; 141  : 			{	// test if stream state okay

  00000	55		 push	 ebp
  00001	8b ec		 mov	 ebp, esp
  00003	81 ec cc 00 00
	00		 sub	 esp, 204		; 000000ccH
  00009	53		 push	 ebx
  0000a	56		 push	 esi
  0000b	57		 push	 edi
  0000c	51		 push	 ecx
  0000d	8d bd 34 ff ff
	ff		 lea	 edi, DWORD PTR [ebp-204]
  00013	b9 33 00 00 00	 mov	 ecx, 51			; 00000033H
  00018	b8 cc cc cc cc	 mov	 eax, -858993460		; ccccccccH
  0001d	f3 ab		 rep stosd
  0001f	59		 pop	 ecx
  00020	89 4d f8	 mov	 DWORD PTR _this$[ebp], ecx

; 142  : 			return (_Ok);

  00023	8b 45 f8	 mov	 eax, DWORD PTR _this$[ebp]
  00026	8a 40 04	 mov	 al, BYTE PTR [eax+4]

; 143  : 			}

  00029	5f		 pop	 edi
  0002a	5e		 pop	 esi
  0002b	5b		 pop	 ebx
  0002c	8b e5		 mov	 esp, ebp
  0002e	5d		 pop	 ebp
  0002f	c3		 ret	 0
??Bsentry@?$basic_ostream@DU?$char_traits@D@std@@@std@@QBE_NXZ ENDP ; std::basic_ostream<char,std::char_traits<char> >::sentry::operator bool
_TEXT	ENDS
; Function compile flags: /Odtp /RTCsu /ZI
; File c:\program files (x86)\microsoft visual studio 14.0\vc\include\ostream
;	COMDAT ??1sentry@?$basic_ostream@DU?$char_traits@D@std@@@std@@QAE@XZ
_TEXT	SEGMENT
_this$ = -20						; size = 4
__$EHRec$ = -12						; size = 12
??1sentry@?$basic_ostream@DU?$char_traits@D@std@@@std@@QAE@XZ PROC ; std::basic_ostream<char,std::char_traits<char> >::sentry::~sentry, COMDAT
; _this$ = ecx

; 130  : 			{	// destroy the object

  00000	55		 push	 ebp
  00001	8b ec		 mov	 ebp, esp
  00003	6a ff		 push	 -1
  00005	68 00 00 00 00	 push	 __ehhandler$??1sentry@?$basic_ostream@DU?$char_traits@D@std@@@std@@QAE@XZ
  0000a	64 a1 00 00 00
	00		 mov	 eax, DWORD PTR fs:0
  00010	50		 push	 eax
  00011	81 ec cc 00 00
	00		 sub	 esp, 204		; 000000ccH
  00017	53		 push	 ebx
  00018	56		 push	 esi
  00019	57		 push	 edi
  0001a	51		 push	 ecx
  0001b	8d bd 28 ff ff
	ff		 lea	 edi, DWORD PTR [ebp-216]
  00021	b9 33 00 00 00	 mov	 ecx, 51			; 00000033H
  00026	b8 cc cc cc cc	 mov	 eax, -858993460		; ccccccccH
  0002b	f3 ab		 rep stosd
  0002d	59		 pop	 ecx
  0002e	a1 00 00 00 00	 mov	 eax, DWORD PTR ___security_cookie
  00033	33 c5		 xor	 eax, ebp
  00035	50		 push	 eax
  00036	8d 45 f4	 lea	 eax, DWORD PTR __$EHRec$[ebp]
  00039	64 a3 00 00 00
	00		 mov	 DWORD PTR fs:0, eax
  0003f	89 4d ec	 mov	 DWORD PTR _this$[ebp], ecx

; 131  :  #if _HAS_EXCEPTIONS
; 132  : 			if (!_XSTD uncaught_exception())

  00042	8b f4		 mov	 esi, esp
  00044	ff 15 00 00 00
	00		 call	 DWORD PTR __imp_?uncaught_exception@std@@YA_NXZ
  0004a	3b f4		 cmp	 esi, esp
  0004c	e8 00 00 00 00	 call	 __RTC_CheckEsp
  00051	0f b6 c0	 movzx	 eax, al
  00054	85 c0		 test	 eax, eax
  00056	75 14		 jne	 SHORT $LN1@sentry

; 133  : 				this->_Myostr._Osfx();

  00058	8b f4		 mov	 esi, esp
  0005a	8b 45 ec	 mov	 eax, DWORD PTR _this$[ebp]
  0005d	8b 08		 mov	 ecx, DWORD PTR [eax]
  0005f	ff 15 00 00 00
	00		 call	 DWORD PTR __imp_?_Osfx@?$basic_ostream@DU?$char_traits@D@std@@@std@@QAEXXZ
  00065	3b f4		 cmp	 esi, esp
  00067	e8 00 00 00 00	 call	 __RTC_CheckEsp
$LN1@sentry:

; 134  : 
; 135  :  #else /* _HAS_EXCEPTIONS */
; 136  : 			this->_Myostr._Osfx();
; 137  :  #endif /* _HAS_EXCEPTIONS */
; 138  : 			}

  0006c	8b 4d ec	 mov	 ecx, DWORD PTR _this$[ebp]
  0006f	e8 00 00 00 00	 call	 ??1_Sentry_base@?$basic_ostream@DU?$char_traits@D@std@@@std@@QAE@XZ ; std::basic_ostream<char,std::char_traits<char> >::_Sentry_base::~_Sentry_base
  00074	8b 4d f4	 mov	 ecx, DWORD PTR __$EHRec$[ebp]
  00077	64 89 0d 00 00
	00 00		 mov	 DWORD PTR fs:0, ecx
  0007e	59		 pop	 ecx
  0007f	5f		 pop	 edi
  00080	5e		 pop	 esi
  00081	5b		 pop	 ebx
  00082	81 c4 d8 00 00
	00		 add	 esp, 216		; 000000d8H
  00088	3b ec		 cmp	 ebp, esp
  0008a	e8 00 00 00 00	 call	 __RTC_CheckEsp
  0008f	8b e5		 mov	 esp, ebp
  00091	5d		 pop	 ebp
  00092	c3		 ret	 0
_TEXT	ENDS
;	COMDAT text$x
text$x	SEGMENT
__ehhandler$??1sentry@?$basic_ostream@DU?$char_traits@D@std@@@std@@QAE@XZ:
  00000	8b 54 24 08	 mov	 edx, DWORD PTR [esp+8]
  00004	8d 42 0c	 lea	 eax, DWORD PTR [edx+12]
  00007	8b 8a 24 ff ff
	ff		 mov	 ecx, DWORD PTR [edx-220]
  0000d	33 c8		 xor	 ecx, eax
  0000f	e8 00 00 00 00	 call	 @__security_check_cookie@4
  00014	b8 00 00 00 00	 mov	 eax, OFFSET __ehfuncinfo$??1sentry@?$basic_ostream@DU?$char_traits@D@std@@@std@@QAE@XZ
  00019	e9 00 00 00 00	 jmp	 ___CxxFrameHandler3
text$x	ENDS
??1sentry@?$basic_ostream@DU?$char_traits@D@std@@@std@@QAE@XZ ENDP ; std::basic_ostream<char,std::char_traits<char> >::sentry::~sentry
; Function compile flags: /Odtp /RTCsu /ZI
; File c:\program files (x86)\microsoft visual studio 14.0\vc\include\ostream
;	COMDAT ??0sentry@?$basic_ostream@DU?$char_traits@D@std@@@std@@QAE@AAV12@@Z
_TEXT	SEGMENT
_this$ = -20						; size = 4
__$EHRec$ = -12						; size = 12
__Ostr$ = 8						; size = 4
??0sentry@?$basic_ostream@DU?$char_traits@D@std@@@std@@QAE@AAV12@@Z PROC ; std::basic_ostream<char,std::char_traits<char> >::sentry::sentry, COMDAT
; _this$ = ecx

; 123  : 			{	// construct locking and testing stream

  00000	55		 push	 ebp
  00001	8b ec		 mov	 ebp, esp
  00003	6a ff		 push	 -1
  00005	68 00 00 00 00	 push	 __ehhandler$??0sentry@?$basic_ostream@DU?$char_traits@D@std@@@std@@QAE@AAV12@@Z
  0000a	64 a1 00 00 00
	00		 mov	 eax, DWORD PTR fs:0
  00010	50		 push	 eax
  00011	81 ec cc 00 00
	00		 sub	 esp, 204		; 000000ccH
  00017	53		 push	 ebx
  00018	56		 push	 esi
  00019	57		 push	 edi
  0001a	51		 push	 ecx
  0001b	8d bd 28 ff ff
	ff		 lea	 edi, DWORD PTR [ebp-216]
  00021	b9 33 00 00 00	 mov	 ecx, 51			; 00000033H
  00026	b8 cc cc cc cc	 mov	 eax, -858993460		; ccccccccH
  0002b	f3 ab		 rep stosd
  0002d	59		 pop	 ecx
  0002e	a1 00 00 00 00	 mov	 eax, DWORD PTR ___security_cookie
  00033	33 c5		 xor	 eax, ebp
  00035	50		 push	 eax
  00036	8d 45 f4	 lea	 eax, DWORD PTR __$EHRec$[ebp]
  00039	64 a3 00 00 00
	00		 mov	 DWORD PTR fs:0, eax
  0003f	89 4d ec	 mov	 DWORD PTR _this$[ebp], ecx

; 122  : 			: _Sentry_base(_Ostr)

  00042	8b 45 08	 mov	 eax, DWORD PTR __Ostr$[ebp]
  00045	50		 push	 eax
  00046	8b 4d ec	 mov	 ecx, DWORD PTR _this$[ebp]
  00049	e8 00 00 00 00	 call	 ??0_Sentry_base@?$basic_ostream@DU?$char_traits@D@std@@@std@@QAE@AAV12@@Z ; std::basic_ostream<char,std::char_traits<char> >::_Sentry_base::_Sentry_base
  0004e	c7 45 fc 00 00
	00 00		 mov	 DWORD PTR __$EHRec$[ebp+8], 0

; 124  : 			if (_Ostr.good() && _Ostr.tie() != 0 && _Ostr.tie() != &_Ostr)

  00055	8b 45 08	 mov	 eax, DWORD PTR __Ostr$[ebp]
  00058	8b 08		 mov	 ecx, DWORD PTR [eax]
  0005a	8b 55 08	 mov	 edx, DWORD PTR __Ostr$[ebp]
  0005d	03 51 04	 add	 edx, DWORD PTR [ecx+4]
  00060	8b f4		 mov	 esi, esp
  00062	8b ca		 mov	 ecx, edx
  00064	ff 15 00 00 00
	00		 call	 DWORD PTR __imp_?good@ios_base@std@@QBE_NXZ
  0006a	3b f4		 cmp	 esi, esp
  0006c	e8 00 00 00 00	 call	 __RTC_CheckEsp
  00071	0f b6 c0	 movzx	 eax, al
  00074	85 c0		 test	 eax, eax
  00076	74 6e		 je	 SHORT $LN2@sentry
  00078	8b 45 08	 mov	 eax, DWORD PTR __Ostr$[ebp]
  0007b	8b 08		 mov	 ecx, DWORD PTR [eax]
  0007d	8b 55 08	 mov	 edx, DWORD PTR __Ostr$[ebp]
  00080	03 51 04	 add	 edx, DWORD PTR [ecx+4]
  00083	8b f4		 mov	 esi, esp
  00085	8b ca		 mov	 ecx, edx
  00087	ff 15 00 00 00
	00		 call	 DWORD PTR __imp_?tie@?$basic_ios@DU?$char_traits@D@std@@@std@@QBEPAV?$basic_ostream@DU?$char_traits@D@std@@@2@XZ
  0008d	3b f4		 cmp	 esi, esp
  0008f	e8 00 00 00 00	 call	 __RTC_CheckEsp
  00094	85 c0		 test	 eax, eax
  00096	74 4e		 je	 SHORT $LN2@sentry
  00098	8b 45 08	 mov	 eax, DWORD PTR __Ostr$[ebp]
  0009b	8b 08		 mov	 ecx, DWORD PTR [eax]
  0009d	8b 55 08	 mov	 edx, DWORD PTR __Ostr$[ebp]
  000a0	03 51 04	 add	 edx, DWORD PTR [ecx+4]
  000a3	8b f4		 mov	 esi, esp
  000a5	8b ca		 mov	 ecx, edx
  000a7	ff 15 00 00 00
	00		 call	 DWORD PTR __imp_?tie@?$basic_ios@DU?$char_traits@D@std@@@std@@QBEPAV?$basic_ostream@DU?$char_traits@D@std@@@2@XZ
  000ad	3b f4		 cmp	 esi, esp
  000af	e8 00 00 00 00	 call	 __RTC_CheckEsp
  000b4	3b 45 08	 cmp	 eax, DWORD PTR __Ostr$[ebp]
  000b7	74 2d		 je	 SHORT $LN2@sentry

; 125  : 				_Ostr.tie()->flush();

  000b9	8b 45 08	 mov	 eax, DWORD PTR __Ostr$[ebp]
  000bc	8b 08		 mov	 ecx, DWORD PTR [eax]
  000be	8b 55 08	 mov	 edx, DWORD PTR __Ostr$[ebp]
  000c1	03 51 04	 add	 edx, DWORD PTR [ecx+4]
  000c4	8b f4		 mov	 esi, esp
  000c6	8b ca		 mov	 ecx, edx
  000c8	ff 15 00 00 00
	00		 call	 DWORD PTR __imp_?tie@?$basic_ios@DU?$char_traits@D@std@@@std@@QBEPAV?$basic_ostream@DU?$char_traits@D@std@@@2@XZ
  000ce	3b f4		 cmp	 esi, esp
  000d0	e8 00 00 00 00	 call	 __RTC_CheckEsp
  000d5	8b f4		 mov	 esi, esp
  000d7	8b c8		 mov	 ecx, eax
  000d9	ff 15 00 00 00
	00		 call	 DWORD PTR __imp_?flush@?$basic_ostream@DU?$char_traits@D@std@@@std@@QAEAAV12@XZ
  000df	3b f4		 cmp	 esi, esp
  000e1	e8 00 00 00 00	 call	 __RTC_CheckEsp
$LN2@sentry:

; 126  : 			_Ok = _Ostr.good();	// store test only after flushing tie

  000e6	8b 45 08	 mov	 eax, DWORD PTR __Ostr$[ebp]
  000e9	8b 08		 mov	 ecx, DWORD PTR [eax]
  000eb	8b 55 08	 mov	 edx, DWORD PTR __Ostr$[ebp]
  000ee	03 51 04	 add	 edx, DWORD PTR [ecx+4]
  000f1	8b f4		 mov	 esi, esp
  000f3	8b ca		 mov	 ecx, edx
  000f5	ff 15 00 00 00
	00		 call	 DWORD PTR __imp_?good@ios_base@std@@QBE_NXZ
  000fb	3b f4		 cmp	 esi, esp
  000fd	e8 00 00 00 00	 call	 __RTC_CheckEsp
  00102	8b 4d ec	 mov	 ecx, DWORD PTR _this$[ebp]
  00105	88 41 04	 mov	 BYTE PTR [ecx+4], al

; 127  : 			}

  00108	c7 45 fc ff ff
	ff ff		 mov	 DWORD PTR __$EHRec$[ebp+8], -1
  0010f	8b 45 ec	 mov	 eax, DWORD PTR _this$[ebp]
  00112	8b 4d f4	 mov	 ecx, DWORD PTR __$EHRec$[ebp]
  00115	64 89 0d 00 00
	00 00		 mov	 DWORD PTR fs:0, ecx
  0011c	59		 pop	 ecx
  0011d	5f		 pop	 edi
  0011e	5e		 pop	 esi
  0011f	5b		 pop	 ebx
  00120	81 c4 d8 00 00
	00		 add	 esp, 216		; 000000d8H
  00126	3b ec		 cmp	 ebp, esp
  00128	e8 00 00 00 00	 call	 __RTC_CheckEsp
  0012d	8b e5		 mov	 esp, ebp
  0012f	5d		 pop	 ebp
  00130	c2 04 00	 ret	 4
_TEXT	ENDS
;	COMDAT text$x
text$x	SEGMENT
__unwindfunclet$??0sentry@?$basic_ostream@DU?$char_traits@D@std@@@std@@QAE@AAV12@@Z$0:
  00000	8b 4d ec	 mov	 ecx, DWORD PTR _this$[ebp]
  00003	e9 00 00 00 00	 jmp	 ??1_Sentry_base@?$basic_ostream@DU?$char_traits@D@std@@@std@@QAE@XZ ; std::basic_ostream<char,std::char_traits<char> >::_Sentry_base::~_Sentry_base
__ehhandler$??0sentry@?$basic_ostream@DU?$char_traits@D@std@@@std@@QAE@AAV12@@Z:
  00008	8b 54 24 08	 mov	 edx, DWORD PTR [esp+8]
  0000c	8d 42 0c	 lea	 eax, DWORD PTR [edx+12]
  0000f	8b 8a 24 ff ff
	ff		 mov	 ecx, DWORD PTR [edx-220]
  00015	33 c8		 xor	 ecx, eax
  00017	e8 00 00 00 00	 call	 @__security_check_cookie@4
  0001c	b8 00 00 00 00	 mov	 eax, OFFSET __ehfuncinfo$??0sentry@?$basic_ostream@DU?$char_traits@D@std@@@std@@QAE@AAV12@@Z
  00021	e9 00 00 00 00	 jmp	 ___CxxFrameHandler3
text$x	ENDS
??0sentry@?$basic_ostream@DU?$char_traits@D@std@@@std@@QAE@AAV12@@Z ENDP ; std::basic_ostream<char,std::char_traits<char> >::sentry::sentry
; Function compile flags: /Odtp /RTCsu /ZI
; File c:\program files (x86)\microsoft visual studio 14.0\vc\include\ostream
;	COMDAT ??1_Sentry_base@?$basic_ostream@DU?$char_traits@D@std@@@std@@QAE@XZ
_TEXT	SEGMENT
tv92 = -224						; size = 4
tv86 = -220						; size = 4
tv72 = -220						; size = 4
_this$ = -20						; size = 4
__$EHRec$ = -12						; size = 12
??1_Sentry_base@?$basic_ostream@DU?$char_traits@D@std@@@std@@QAE@XZ PROC ; std::basic_ostream<char,std::char_traits<char> >::_Sentry_base::~_Sentry_base, COMDAT
; _this$ = ecx

; 106  : 			{	// destroy after unlocking

  00000	55		 push	 ebp
  00001	8b ec		 mov	 ebp, esp
  00003	6a ff		 push	 -1
  00005	68 00 00 00 00	 push	 __ehhandler$??1_Sentry_base@?$basic_ostream@DU?$char_traits@D@std@@@std@@QAE@XZ
  0000a	64 a1 00 00 00
	00		 mov	 eax, DWORD PTR fs:0
  00010	50		 push	 eax
  00011	81 ec d4 00 00
	00		 sub	 esp, 212		; 000000d4H
  00017	53		 push	 ebx
  00018	56		 push	 esi
  00019	57		 push	 edi
  0001a	51		 push	 ecx
  0001b	8d bd 20 ff ff
	ff		 lea	 edi, DWORD PTR [ebp-224]
  00021	b9 35 00 00 00	 mov	 ecx, 53			; 00000035H
  00026	b8 cc cc cc cc	 mov	 eax, -858993460		; ccccccccH
  0002b	f3 ab		 rep stosd
  0002d	59		 pop	 ecx
  0002e	a1 00 00 00 00	 mov	 eax, DWORD PTR ___security_cookie
  00033	33 c5		 xor	 eax, ebp
  00035	50		 push	 eax
  00036	8d 45 f4	 lea	 eax, DWORD PTR __$EHRec$[ebp]
  00039	64 a3 00 00 00
	00		 mov	 DWORD PTR fs:0, eax
  0003f	89 4d ec	 mov	 DWORD PTR _this$[ebp], ecx

; 107  : 			if (_Myostr.rdbuf() != 0)

  00042	8b 45 ec	 mov	 eax, DWORD PTR _this$[ebp]
  00045	8b 08		 mov	 ecx, DWORD PTR [eax]
  00047	89 8d 24 ff ff
	ff		 mov	 DWORD PTR tv72[ebp], ecx
  0004d	8b 95 24 ff ff
	ff		 mov	 edx, DWORD PTR tv72[ebp]
  00053	8b 02		 mov	 eax, DWORD PTR [edx]
  00055	8b 8d 24 ff ff
	ff		 mov	 ecx, DWORD PTR tv72[ebp]
  0005b	03 48 04	 add	 ecx, DWORD PTR [eax+4]
  0005e	8b f4		 mov	 esi, esp
  00060	ff 15 00 00 00
	00		 call	 DWORD PTR __imp_?rdbuf@?$basic_ios@DU?$char_traits@D@std@@@std@@QBEPAV?$basic_streambuf@DU?$char_traits@D@std@@@2@XZ
  00066	3b f4		 cmp	 esi, esp
  00068	e8 00 00 00 00	 call	 __RTC_CheckEsp
  0006d	85 c0		 test	 eax, eax
  0006f	74 4d		 je	 SHORT $LN3@Sentry_bas

; 108  : 				_Myostr.rdbuf()->_Unlock();

  00071	8b 45 ec	 mov	 eax, DWORD PTR _this$[ebp]
  00074	8b 08		 mov	 ecx, DWORD PTR [eax]
  00076	89 8d 24 ff ff
	ff		 mov	 DWORD PTR tv86[ebp], ecx
  0007c	8b 95 24 ff ff
	ff		 mov	 edx, DWORD PTR tv86[ebp]
  00082	8b 02		 mov	 eax, DWORD PTR [edx]
  00084	8b 8d 24 ff ff
	ff		 mov	 ecx, DWORD PTR tv86[ebp]
  0008a	03 48 04	 add	 ecx, DWORD PTR [eax+4]
  0008d	8b f4		 mov	 esi, esp
  0008f	ff 15 00 00 00
	00		 call	 DWORD PTR __imp_?rdbuf@?$basic_ios@DU?$char_traits@D@std@@@std@@QBEPAV?$basic_streambuf@DU?$char_traits@D@std@@@2@XZ
  00095	3b f4		 cmp	 esi, esp
  00097	e8 00 00 00 00	 call	 __RTC_CheckEsp
  0009c	89 85 20 ff ff
	ff		 mov	 DWORD PTR tv92[ebp], eax
  000a2	8b 8d 20 ff ff
	ff		 mov	 ecx, DWORD PTR tv92[ebp]
  000a8	8b 11		 mov	 edx, DWORD PTR [ecx]
  000aa	8b f4		 mov	 esi, esp
  000ac	8b 8d 20 ff ff
	ff		 mov	 ecx, DWORD PTR tv92[ebp]
  000b2	8b 42 08	 mov	 eax, DWORD PTR [edx+8]
  000b5	ff d0		 call	 eax
  000b7	3b f4		 cmp	 esi, esp
  000b9	e8 00 00 00 00	 call	 __RTC_CheckEsp
$LN3@Sentry_bas:

; 109  : 			}

  000be	8b 4d f4	 mov	 ecx, DWORD PTR __$EHRec$[ebp]
  000c1	64 89 0d 00 00
	00 00		 mov	 DWORD PTR fs:0, ecx
  000c8	59		 pop	 ecx
  000c9	5f		 pop	 edi
  000ca	5e		 pop	 esi
  000cb	5b		 pop	 ebx
  000cc	81 c4 e0 00 00
	00		 add	 esp, 224		; 000000e0H
  000d2	3b ec		 cmp	 ebp, esp
  000d4	e8 00 00 00 00	 call	 __RTC_CheckEsp
  000d9	8b e5		 mov	 esp, ebp
  000db	5d		 pop	 ebp
  000dc	c3		 ret	 0
_TEXT	ENDS
;	COMDAT text$x
text$x	SEGMENT
__ehhandler$??1_Sentry_base@?$basic_ostream@DU?$char_traits@D@std@@@std@@QAE@XZ:
  00000	8b 54 24 08	 mov	 edx, DWORD PTR [esp+8]
  00004	8d 42 0c	 lea	 eax, DWORD PTR [edx+12]
  00007	8b 8a 1c ff ff
	ff		 mov	 ecx, DWORD PTR [edx-228]
  0000d	33 c8		 xor	 ecx, eax
  0000f	e8 00 00 00 00	 call	 @__security_check_cookie@4
  00014	b8 00 00 00 00	 mov	 eax, OFFSET __ehfuncinfo$??1_Sentry_base@?$basic_ostream@DU?$char_traits@D@std@@@std@@QAE@XZ
  00019	e9 00 00 00 00	 jmp	 ___CxxFrameHandler3
text$x	ENDS
??1_Sentry_base@?$basic_ostream@DU?$char_traits@D@std@@@std@@QAE@XZ ENDP ; std::basic_ostream<char,std::char_traits<char> >::_Sentry_base::~_Sentry_base
; Function compile flags: /Odtp /RTCsu /ZI
; File c:\program files (x86)\microsoft visual studio 14.0\vc\include\ostream
;	COMDAT ??0_Sentry_base@?$basic_ostream@DU?$char_traits@D@std@@@std@@QAE@AAV12@@Z
_TEXT	SEGMENT
tv93 = -212						; size = 4
tv87 = -208						; size = 4
tv73 = -208						; size = 4
_this$ = -8						; size = 4
__Ostr$ = 8						; size = 4
??0_Sentry_base@?$basic_ostream@DU?$char_traits@D@std@@@std@@QAE@AAV12@@Z PROC ; std::basic_ostream<char,std::char_traits<char> >::_Sentry_base::_Sentry_base, COMDAT
; _this$ = ecx

; 100  : 			{	// lock the stream buffer, if there

  00000	55		 push	 ebp
  00001	8b ec		 mov	 ebp, esp
  00003	81 ec d4 00 00
	00		 sub	 esp, 212		; 000000d4H
  00009	53		 push	 ebx
  0000a	56		 push	 esi
  0000b	57		 push	 edi
  0000c	51		 push	 ecx
  0000d	8d bd 2c ff ff
	ff		 lea	 edi, DWORD PTR [ebp-212]
  00013	b9 35 00 00 00	 mov	 ecx, 53			; 00000035H
  00018	b8 cc cc cc cc	 mov	 eax, -858993460		; ccccccccH
  0001d	f3 ab		 rep stosd
  0001f	59		 pop	 ecx
  00020	89 4d f8	 mov	 DWORD PTR _this$[ebp], ecx

; 99   : 			: _Myostr(_Ostr)

  00023	8b 45 f8	 mov	 eax, DWORD PTR _this$[ebp]
  00026	8b 4d 08	 mov	 ecx, DWORD PTR __Ostr$[ebp]
  00029	89 08		 mov	 DWORD PTR [eax], ecx

; 101  : 			if (_Myostr.rdbuf() != 0)

  0002b	8b 45 f8	 mov	 eax, DWORD PTR _this$[ebp]
  0002e	8b 08		 mov	 ecx, DWORD PTR [eax]
  00030	89 8d 30 ff ff
	ff		 mov	 DWORD PTR tv73[ebp], ecx
  00036	8b 95 30 ff ff
	ff		 mov	 edx, DWORD PTR tv73[ebp]
  0003c	8b 02		 mov	 eax, DWORD PTR [edx]
  0003e	8b 8d 30 ff ff
	ff		 mov	 ecx, DWORD PTR tv73[ebp]
  00044	03 48 04	 add	 ecx, DWORD PTR [eax+4]
  00047	8b f4		 mov	 esi, esp
  00049	ff 15 00 00 00
	00		 call	 DWORD PTR __imp_?rdbuf@?$basic_ios@DU?$char_traits@D@std@@@std@@QBEPAV?$basic_streambuf@DU?$char_traits@D@std@@@2@XZ
  0004f	3b f4		 cmp	 esi, esp
  00051	e8 00 00 00 00	 call	 __RTC_CheckEsp
  00056	85 c0		 test	 eax, eax
  00058	74 4d		 je	 SHORT $LN1@Sentry_bas

; 102  : 				_Myostr.rdbuf()->_Lock();

  0005a	8b 45 f8	 mov	 eax, DWORD PTR _this$[ebp]
  0005d	8b 08		 mov	 ecx, DWORD PTR [eax]
  0005f	89 8d 30 ff ff
	ff		 mov	 DWORD PTR tv87[ebp], ecx
  00065	8b 95 30 ff ff
	ff		 mov	 edx, DWORD PTR tv87[ebp]
  0006b	8b 02		 mov	 eax, DWORD PTR [edx]
  0006d	8b 8d 30 ff ff
	ff		 mov	 ecx, DWORD PTR tv87[ebp]
  00073	03 48 04	 add	 ecx, DWORD PTR [eax+4]
  00076	8b f4		 mov	 esi, esp
  00078	ff 15 00 00 00
	00		 call	 DWORD PTR __imp_?rdbuf@?$basic_ios@DU?$char_traits@D@std@@@std@@QBEPAV?$basic_streambuf@DU?$char_traits@D@std@@@2@XZ
  0007e	3b f4		 cmp	 esi, esp
  00080	e8 00 00 00 00	 call	 __RTC_CheckEsp
  00085	89 85 2c ff ff
	ff		 mov	 DWORD PTR tv93[ebp], eax
  0008b	8b 8d 2c ff ff
	ff		 mov	 ecx, DWORD PTR tv93[ebp]
  00091	8b 11		 mov	 edx, DWORD PTR [ecx]
  00093	8b f4		 mov	 esi, esp
  00095	8b 8d 2c ff ff
	ff		 mov	 ecx, DWORD PTR tv93[ebp]
  0009b	8b 42 04	 mov	 eax, DWORD PTR [edx+4]
  0009e	ff d0		 call	 eax
  000a0	3b f4		 cmp	 esi, esp
  000a2	e8 00 00 00 00	 call	 __RTC_CheckEsp
$LN1@Sentry_bas:

; 103  : 			}

  000a7	8b 45 f8	 mov	 eax, DWORD PTR _this$[ebp]
  000aa	5f		 pop	 edi
  000ab	5e		 pop	 esi
  000ac	5b		 pop	 ebx
  000ad	81 c4 d4 00 00
	00		 add	 esp, 212		; 000000d4H
  000b3	3b ec		 cmp	 ebp, esp
  000b5	e8 00 00 00 00	 call	 __RTC_CheckEsp
  000ba	8b e5		 mov	 esp, ebp
  000bc	5d		 pop	 ebp
  000bd	c2 04 00	 ret	 4
??0_Sentry_base@?$basic_ostream@DU?$char_traits@D@std@@@std@@QAE@AAV12@@Z ENDP ; std::basic_ostream<char,std::char_traits<char> >::_Sentry_base::_Sentry_base
_TEXT	ENDS
; Function compile flags: /Odtp /RTCsu /ZI
; File c:\program files (x86)\microsoft visual studio 14.0\vc\include\ostream
;	COMDAT ??$?6U?$char_traits@D@std@@@std@@YAAAV?$basic_ostream@DU?$char_traits@D@std@@@0@AAV10@PBD@Z
_TEXT	SEGMENT
tv135 = -352						; size = 8
tv342 = -344						; size = 8
tv290 = -340						; size = 4
tv287 = -340						; size = 8
tv285 = -340						; size = 4
tv328 = -336						; size = 8
tv289 = -336						; size = 4
tv284 = -336						; size = 4
tv286 = -332						; size = 4
tv137 = -332						; size = 4
tv288 = -329						; size = 1
tv283 = -329						; size = 1
$T2 = -324						; size = 4
$T3 = -312						; size = 4
$T4 = -300						; size = 4
$T5 = -288						; size = 4
$T6 = -276						; size = 4
__Ok$ = -72						; size = 8
__Pad$ = -56						; size = 8
__Count$ = -40						; size = 8
__State$ = -24						; size = 4
__$EHRec$ = -16						; size = 16
__Ostr$ = 8						; size = 4
__Val$ = 12						; size = 4
??$?6U?$char_traits@D@std@@@std@@YAAAV?$basic_ostream@DU?$char_traits@D@std@@@0@AAV10@PBD@Z PROC ; std::operator<<<std::char_traits<char> >, COMDAT

; 780  : 	{	// insert NTBS into char stream

  00000	55		 push	 ebp
  00001	8b ec		 mov	 ebp, esp
  00003	6a ff		 push	 -1
  00005	68 00 00 00 00	 push	 __ehhandler$??$?6U?$char_traits@D@std@@@std@@YAAAV?$basic_ostream@DU?$char_traits@D@std@@@0@AAV10@PBD@Z
  0000a	64 a1 00 00 00
	00		 mov	 eax, DWORD PTR fs:0
  00010	50		 push	 eax
  00011	51		 push	 ecx
  00012	81 ec 50 01 00
	00		 sub	 esp, 336		; 00000150H
  00018	53		 push	 ebx
  00019	56		 push	 esi
  0001a	57		 push	 edi
  0001b	8d bd a0 fe ff
	ff		 lea	 edi, DWORD PTR [ebp-352]
  00021	b9 54 00 00 00	 mov	 ecx, 84			; 00000054H
  00026	b8 cc cc cc cc	 mov	 eax, -858993460		; ccccccccH
  0002b	f3 ab		 rep stosd
  0002d	a1 00 00 00 00	 mov	 eax, DWORD PTR ___security_cookie
  00032	33 c5		 xor	 eax, ebp
  00034	50		 push	 eax
  00035	8d 45 f4	 lea	 eax, DWORD PTR __$EHRec$[ebp+4]
  00038	64 a3 00 00 00
	00		 mov	 DWORD PTR fs:0, eax
  0003e	89 65 f0	 mov	 DWORD PTR __$EHRec$[ebp], esp

; 781  : 	typedef char _Elem;
; 782  : 	typedef basic_ostream<_Elem, _Traits> _Myos;
; 783  : 	ios_base::iostate _State = ios_base::goodbit;

  00041	c7 45 e8 00 00
	00 00		 mov	 DWORD PTR __State$[ebp], 0

; 784  : 	streamsize _Count = (streamsize)_Traits::length(_Val);	// may overflow

  00048	8b 45 0c	 mov	 eax, DWORD PTR __Val$[ebp]
  0004b	50		 push	 eax
  0004c	e8 00 00 00 00	 call	 ?length@?$char_traits@D@std@@SAIPBD@Z ; std::char_traits<char>::length
  00051	83 c4 04	 add	 esp, 4
  00054	33 c9		 xor	 ecx, ecx
  00056	89 45 d8	 mov	 DWORD PTR __Count$[ebp], eax
  00059	89 4d dc	 mov	 DWORD PTR __Count$[ebp+4], ecx

; 785  : 	streamsize _Pad = _Ostr.width() <= 0 || _Ostr.width() <= _Count

  0005c	8b 45 08	 mov	 eax, DWORD PTR __Ostr$[ebp]
  0005f	8b 08		 mov	 ecx, DWORD PTR [eax]
  00061	8b 55 08	 mov	 edx, DWORD PTR __Ostr$[ebp]
  00064	03 51 04	 add	 edx, DWORD PTR [ecx+4]
  00067	8b f4		 mov	 esi, esp
  00069	8b ca		 mov	 ecx, edx
  0006b	ff 15 00 00 00
	00		 call	 DWORD PTR __imp_?width@ios_base@std@@QBE_JXZ
  00071	3b f4		 cmp	 esi, esp
  00073	e8 00 00 00 00	 call	 __RTC_CheckEsp
  00078	89 85 b0 fe ff
	ff		 mov	 DWORD PTR tv328[ebp], eax
  0007e	89 95 b4 fe ff
	ff		 mov	 DWORD PTR tv328[ebp+4], edx
  00084	83 bd b4 fe ff
	ff 00		 cmp	 DWORD PTR tv328[ebp+4], 0
  0008b	7c 79		 jl	 SHORT $LN17@operator
  0008d	7f 09		 jg	 SHORT $LN24@operator
  0008f	83 bd b0 fe ff
	ff 00		 cmp	 DWORD PTR tv328[ebp], 0
  00096	76 6e		 jbe	 SHORT $LN17@operator
$LN24@operator:
  00098	8b 45 08	 mov	 eax, DWORD PTR __Ostr$[ebp]
  0009b	8b 08		 mov	 ecx, DWORD PTR [eax]
  0009d	8b 55 08	 mov	 edx, DWORD PTR __Ostr$[ebp]
  000a0	03 51 04	 add	 edx, DWORD PTR [ecx+4]
  000a3	8b f4		 mov	 esi, esp
  000a5	8b ca		 mov	 ecx, edx
  000a7	ff 15 00 00 00
	00		 call	 DWORD PTR __imp_?width@ios_base@std@@QBE_JXZ
  000ad	3b f4		 cmp	 esi, esp
  000af	e8 00 00 00 00	 call	 __RTC_CheckEsp
  000b4	89 85 a8 fe ff
	ff		 mov	 DWORD PTR tv342[ebp], eax
  000ba	89 95 ac fe ff
	ff		 mov	 DWORD PTR tv342[ebp+4], edx
  000c0	8b 85 ac fe ff
	ff		 mov	 eax, DWORD PTR tv342[ebp+4]
  000c6	3b 45 dc	 cmp	 eax, DWORD PTR __Count$[ebp+4]
  000c9	7c 3b		 jl	 SHORT $LN17@operator
  000cb	7f 0b		 jg	 SHORT $LN25@operator
  000cd	8b 8d a8 fe ff
	ff		 mov	 ecx, DWORD PTR tv342[ebp]
  000d3	3b 4d d8	 cmp	 ecx, DWORD PTR __Count$[ebp]
  000d6	76 2e		 jbe	 SHORT $LN17@operator
$LN25@operator:
  000d8	8b 55 08	 mov	 edx, DWORD PTR __Ostr$[ebp]
  000db	8b 02		 mov	 eax, DWORD PTR [edx]
  000dd	8b 4d 08	 mov	 ecx, DWORD PTR __Ostr$[ebp]
  000e0	03 48 04	 add	 ecx, DWORD PTR [eax+4]
  000e3	8b f4		 mov	 esi, esp
  000e5	ff 15 00 00 00
	00		 call	 DWORD PTR __imp_?width@ios_base@std@@QBE_JXZ
  000eb	3b f4		 cmp	 esi, esp
  000ed	e8 00 00 00 00	 call	 __RTC_CheckEsp
  000f2	2b 45 d8	 sub	 eax, DWORD PTR __Count$[ebp]
  000f5	1b 55 dc	 sbb	 edx, DWORD PTR __Count$[ebp+4]
  000f8	89 85 a0 fe ff
	ff		 mov	 DWORD PTR tv135[ebp], eax
  000fe	89 95 a4 fe ff
	ff		 mov	 DWORD PTR tv135[ebp+4], edx
  00104	eb 0b		 jmp	 SHORT $LN18@operator
$LN17@operator:
  00106	0f 57 c0	 xorps	 xmm0, xmm0
  00109	66 0f 13 85 a0
	fe ff ff	 movlpd	 QWORD PTR tv135[ebp], xmm0
$LN18@operator:
  00111	8b 8d a0 fe ff
	ff		 mov	 ecx, DWORD PTR tv135[ebp]
  00117	89 4d c8	 mov	 DWORD PTR __Pad$[ebp], ecx
  0011a	8b 95 a4 fe ff
	ff		 mov	 edx, DWORD PTR tv135[ebp+4]
  00120	89 55 cc	 mov	 DWORD PTR __Pad$[ebp+4], edx

; 786  : 		? 0 : _Ostr.width() - _Count;
; 787  : 	const typename _Myos::sentry _Ok(_Ostr);

  00123	8b 45 08	 mov	 eax, DWORD PTR __Ostr$[ebp]
  00126	50		 push	 eax
  00127	8d 4d b8	 lea	 ecx, DWORD PTR __Ok$[ebp]
  0012a	e8 00 00 00 00	 call	 ??0sentry@?$basic_ostream@DU?$char_traits@D@std@@@std@@QAE@AAV12@@Z ; std::basic_ostream<char,std::char_traits<char> >::sentry::sentry
  0012f	c7 45 fc 00 00
	00 00		 mov	 DWORD PTR __$EHRec$[ebp+12], 0

; 788  : 
; 789  : 	if (!_Ok)

  00136	8d 4d b8	 lea	 ecx, DWORD PTR __Ok$[ebp]
  00139	e8 00 00 00 00	 call	 ??Bsentry@?$basic_ostream@DU?$char_traits@D@std@@@std@@QBE_NXZ ; std::basic_ostream<char,std::char_traits<char> >::sentry::operator bool
  0013e	0f b6 c0	 movzx	 eax, al
  00141	85 c0		 test	 eax, eax
  00143	75 0e		 jne	 SHORT $LN8@operator

; 790  : 		_State |= ios_base::badbit;

  00145	8b 45 e8	 mov	 eax, DWORD PTR __State$[ebp]
  00148	83 c8 04	 or	 eax, 4
  0014b	89 45 e8	 mov	 DWORD PTR __State$[ebp], eax

; 791  : 	else

  0014e	e9 ba 02 00 00	 jmp	 $LN9@operator
$LN8@operator:

; 792  : 		{	// state okay, insert
; 793  : 		_TRY_IO_BEGIN

  00153	c6 45 fc 01	 mov	 BYTE PTR __$EHRec$[ebp+12], 1

; 794  : 		if ((_Ostr.flags() & ios_base::adjustfield) != ios_base::left)

  00157	8b 45 08	 mov	 eax, DWORD PTR __Ostr$[ebp]
  0015a	8b 08		 mov	 ecx, DWORD PTR [eax]
  0015c	8b 55 08	 mov	 edx, DWORD PTR __Ostr$[ebp]
  0015f	03 51 04	 add	 edx, DWORD PTR [ecx+4]
  00162	8b f4		 mov	 esi, esp
  00164	8b ca		 mov	 ecx, edx
  00166	ff 15 00 00 00
	00		 call	 DWORD PTR __imp_?flags@ios_base@std@@QBEHXZ
  0016c	3b f4		 cmp	 esi, esp
  0016e	e8 00 00 00 00	 call	 __RTC_CheckEsp
  00173	89 85 b4 fe ff
	ff		 mov	 DWORD PTR tv137[ebp], eax
  00179	8b 85 b4 fe ff
	ff		 mov	 eax, DWORD PTR tv137[ebp]
  0017f	25 c0 01 00 00	 and	 eax, 448		; 000001c0H
  00184	83 f8 40	 cmp	 eax, 64			; 00000040H
  00187	0f 84 d5 00 00
	00		 je	 $LN11@operator

; 795  : 			for (; 0 < _Pad; --_Pad)	// pad on left

  0018d	eb 12		 jmp	 SHORT $LN4@operator
$LN2@operator:
  0018f	8b 45 c8	 mov	 eax, DWORD PTR __Pad$[ebp]
  00192	83 e8 01	 sub	 eax, 1
  00195	8b 4d cc	 mov	 ecx, DWORD PTR __Pad$[ebp+4]
  00198	83 d9 00	 sbb	 ecx, 0
  0019b	89 45 c8	 mov	 DWORD PTR __Pad$[ebp], eax
  0019e	89 4d cc	 mov	 DWORD PTR __Pad$[ebp+4], ecx
$LN4@operator:
  001a1	83 7d cc 00	 cmp	 DWORD PTR __Pad$[ebp+4], 0
  001a5	0f 8c b7 00 00
	00		 jl	 $LN11@operator
  001ab	7f 0a		 jg	 SHORT $LN26@operator
  001ad	83 7d c8 00	 cmp	 DWORD PTR __Pad$[ebp], 0
  001b1	0f 86 ab 00 00
	00		 jbe	 $LN11@operator
$LN26@operator:

; 796  : 				if (_Traits::eq_int_type(_Traits::eof(),

  001b7	8b 45 08	 mov	 eax, DWORD PTR __Ostr$[ebp]
  001ba	8b 08		 mov	 ecx, DWORD PTR [eax]
  001bc	8b 55 08	 mov	 edx, DWORD PTR __Ostr$[ebp]
  001bf	03 51 04	 add	 edx, DWORD PTR [ecx+4]
  001c2	8b f4		 mov	 esi, esp
  001c4	8b ca		 mov	 ecx, edx
  001c6	ff 15 00 00 00
	00		 call	 DWORD PTR __imp_?fill@?$basic_ios@DU?$char_traits@D@std@@@std@@QBEDXZ
  001cc	3b f4		 cmp	 esi, esp
  001ce	e8 00 00 00 00	 call	 __RTC_CheckEsp
  001d3	88 85 b7 fe ff
	ff		 mov	 BYTE PTR tv283[ebp], al
  001d9	8b 45 08	 mov	 eax, DWORD PTR __Ostr$[ebp]
  001dc	8b 08		 mov	 ecx, DWORD PTR [eax]
  001de	8b 55 08	 mov	 edx, DWORD PTR __Ostr$[ebp]
  001e1	03 51 04	 add	 edx, DWORD PTR [ecx+4]
  001e4	8b f4		 mov	 esi, esp
  001e6	8b ca		 mov	 ecx, edx
  001e8	ff 15 00 00 00
	00		 call	 DWORD PTR __imp_?rdbuf@?$basic_ios@DU?$char_traits@D@std@@@std@@QBEPAV?$basic_streambuf@DU?$char_traits@D@std@@@2@XZ
  001ee	3b f4		 cmp	 esi, esp
  001f0	e8 00 00 00 00	 call	 __RTC_CheckEsp
  001f5	89 85 b0 fe ff
	ff		 mov	 DWORD PTR tv284[ebp], eax
  001fb	8b f4		 mov	 esi, esp
  001fd	0f b6 85 b7 fe
	ff ff		 movzx	 eax, BYTE PTR tv283[ebp]
  00204	50		 push	 eax
  00205	8b 8d b0 fe ff
	ff		 mov	 ecx, DWORD PTR tv284[ebp]
  0020b	ff 15 00 00 00
	00		 call	 DWORD PTR __imp_?sputc@?$basic_streambuf@DU?$char_traits@D@std@@@std@@QAEHD@Z
  00211	3b f4		 cmp	 esi, esp
  00213	e8 00 00 00 00	 call	 __RTC_CheckEsp
  00218	89 85 ac fe ff
	ff		 mov	 DWORD PTR tv285[ebp], eax
  0021e	8b 8d ac fe ff
	ff		 mov	 ecx, DWORD PTR tv285[ebp]
  00224	89 8d ec fe ff
	ff		 mov	 DWORD PTR $T6[ebp], ecx
  0022a	e8 00 00 00 00	 call	 ?eof@?$char_traits@D@std@@SAHXZ ; std::char_traits<char>::eof
  0022f	89 85 e0 fe ff
	ff		 mov	 DWORD PTR $T5[ebp], eax
  00235	8d 95 ec fe ff
	ff		 lea	 edx, DWORD PTR $T6[ebp]
  0023b	52		 push	 edx
  0023c	8d 85 e0 fe ff
	ff		 lea	 eax, DWORD PTR $T5[ebp]
  00242	50		 push	 eax
  00243	e8 00 00 00 00	 call	 ?eq_int_type@?$char_traits@D@std@@SA_NABH0@Z ; std::char_traits<char>::eq_int_type
  00248	83 c4 08	 add	 esp, 8
  0024b	0f b6 c8	 movzx	 ecx, al
  0024e	85 c9		 test	 ecx, ecx
  00250	74 0b		 je	 SHORT $LN12@operator

; 797  : 					_Ostr.rdbuf()->sputc(_Ostr.fill())))
; 798  : 					{	// insertion failed, quit
; 799  : 					_State |= ios_base::badbit;

  00252	8b 45 e8	 mov	 eax, DWORD PTR __State$[ebp]
  00255	83 c8 04	 or	 eax, 4
  00258	89 45 e8	 mov	 DWORD PTR __State$[ebp], eax

; 800  : 					break;

  0025b	eb 05		 jmp	 SHORT $LN11@operator
$LN12@operator:

; 801  : 					}
; 802  : 
; 803  : 		if (_State == ios_base::goodbit

  0025d	e9 2d ff ff ff	 jmp	 $LN2@operator
$LN11@operator:

; 804  : 			&& _Ostr.rdbuf()->sputn(_Val, _Count) != _Count)

  00262	83 7d e8 00	 cmp	 DWORD PTR __State$[ebp], 0
  00266	75 6e		 jne	 SHORT $LN13@operator
  00268	8b 45 08	 mov	 eax, DWORD PTR __Ostr$[ebp]
  0026b	8b 08		 mov	 ecx, DWORD PTR [eax]
  0026d	8b 55 08	 mov	 edx, DWORD PTR __Ostr$[ebp]
  00270	03 51 04	 add	 edx, DWORD PTR [ecx+4]
  00273	8b f4		 mov	 esi, esp
  00275	8b ca		 mov	 ecx, edx
  00277	ff 15 00 00 00
	00		 call	 DWORD PTR __imp_?rdbuf@?$basic_ios@DU?$char_traits@D@std@@@std@@QBEPAV?$basic_streambuf@DU?$char_traits@D@std@@@2@XZ
  0027d	3b f4		 cmp	 esi, esp
  0027f	e8 00 00 00 00	 call	 __RTC_CheckEsp
  00284	89 85 b4 fe ff
	ff		 mov	 DWORD PTR tv286[ebp], eax
  0028a	8b f4		 mov	 esi, esp
  0028c	8b 45 dc	 mov	 eax, DWORD PTR __Count$[ebp+4]
  0028f	50		 push	 eax
  00290	8b 4d d8	 mov	 ecx, DWORD PTR __Count$[ebp]
  00293	51		 push	 ecx
  00294	8b 55 0c	 mov	 edx, DWORD PTR __Val$[ebp]
  00297	52		 push	 edx
  00298	8b 8d b4 fe ff
	ff		 mov	 ecx, DWORD PTR tv286[ebp]
  0029e	ff 15 00 00 00
	00		 call	 DWORD PTR __imp_?sputn@?$basic_streambuf@DU?$char_traits@D@std@@@std@@QAE_JPBD_J@Z
  002a4	3b f4		 cmp	 esi, esp
  002a6	e8 00 00 00 00	 call	 __RTC_CheckEsp
  002ab	89 85 ac fe ff
	ff		 mov	 DWORD PTR tv287[ebp], eax
  002b1	89 95 b0 fe ff
	ff		 mov	 DWORD PTR tv287[ebp+4], edx
  002b7	8b 85 ac fe ff
	ff		 mov	 eax, DWORD PTR tv287[ebp]
  002bd	3b 45 d8	 cmp	 eax, DWORD PTR __Count$[ebp]
  002c0	75 0b		 jne	 SHORT $LN27@operator
  002c2	8b 8d b0 fe ff
	ff		 mov	 ecx, DWORD PTR tv287[ebp+4]
  002c8	3b 4d dc	 cmp	 ecx, DWORD PTR __Count$[ebp+4]
  002cb	74 09		 je	 SHORT $LN13@operator
$LN27@operator:

; 805  : 			_State |= ios_base::badbit;

  002cd	8b 45 e8	 mov	 eax, DWORD PTR __State$[ebp]
  002d0	83 c8 04	 or	 eax, 4
  002d3	89 45 e8	 mov	 DWORD PTR __State$[ebp], eax
$LN13@operator:

; 806  : 
; 807  : 		if (_State == ios_base::goodbit)

  002d6	83 7d e8 00	 cmp	 DWORD PTR __State$[ebp], 0
  002da	0f 85 d5 00 00
	00		 jne	 $LN14@operator

; 808  : 			for (; 0 < _Pad; --_Pad)	// pad on right

  002e0	eb 12		 jmp	 SHORT $LN7@operator
$LN5@operator:
  002e2	8b 45 c8	 mov	 eax, DWORD PTR __Pad$[ebp]
  002e5	83 e8 01	 sub	 eax, 1
  002e8	8b 4d cc	 mov	 ecx, DWORD PTR __Pad$[ebp+4]
  002eb	83 d9 00	 sbb	 ecx, 0
  002ee	89 45 c8	 mov	 DWORD PTR __Pad$[ebp], eax
  002f1	89 4d cc	 mov	 DWORD PTR __Pad$[ebp+4], ecx
$LN7@operator:
  002f4	83 7d cc 00	 cmp	 DWORD PTR __Pad$[ebp+4], 0
  002f8	0f 8c b7 00 00
	00		 jl	 $LN14@operator
  002fe	7f 0a		 jg	 SHORT $LN28@operator
  00300	83 7d c8 00	 cmp	 DWORD PTR __Pad$[ebp], 0
  00304	0f 86 ab 00 00
	00		 jbe	 $LN14@operator
$LN28@operator:

; 809  : 				if (_Traits::eq_int_type(_Traits::eof(),

  0030a	8b 45 08	 mov	 eax, DWORD PTR __Ostr$[ebp]
  0030d	8b 08		 mov	 ecx, DWORD PTR [eax]
  0030f	8b 55 08	 mov	 edx, DWORD PTR __Ostr$[ebp]
  00312	03 51 04	 add	 edx, DWORD PTR [ecx+4]
  00315	8b f4		 mov	 esi, esp
  00317	8b ca		 mov	 ecx, edx
  00319	ff 15 00 00 00
	00		 call	 DWORD PTR __imp_?fill@?$basic_ios@DU?$char_traits@D@std@@@std@@QBEDXZ
  0031f	3b f4		 cmp	 esi, esp
  00321	e8 00 00 00 00	 call	 __RTC_CheckEsp
  00326	88 85 b7 fe ff
	ff		 mov	 BYTE PTR tv288[ebp], al
  0032c	8b 45 08	 mov	 eax, DWORD PTR __Ostr$[ebp]
  0032f	8b 08		 mov	 ecx, DWORD PTR [eax]
  00331	8b 55 08	 mov	 edx, DWORD PTR __Ostr$[ebp]
  00334	03 51 04	 add	 edx, DWORD PTR [ecx+4]
  00337	8b f4		 mov	 esi, esp
  00339	8b ca		 mov	 ecx, edx
  0033b	ff 15 00 00 00
	00		 call	 DWORD PTR __imp_?rdbuf@?$basic_ios@DU?$char_traits@D@std@@@std@@QBEPAV?$basic_streambuf@DU?$char_traits@D@std@@@2@XZ
  00341	3b f4		 cmp	 esi, esp
  00343	e8 00 00 00 00	 call	 __RTC_CheckEsp
  00348	89 85 b0 fe ff
	ff		 mov	 DWORD PTR tv289[ebp], eax
  0034e	8b f4		 mov	 esi, esp
  00350	0f b6 85 b7 fe
	ff ff		 movzx	 eax, BYTE PTR tv288[ebp]
  00357	50		 push	 eax
  00358	8b 8d b0 fe ff
	ff		 mov	 ecx, DWORD PTR tv289[ebp]
  0035e	ff 15 00 00 00
	00		 call	 DWORD PTR __imp_?sputc@?$basic_streambuf@DU?$char_traits@D@std@@@std@@QAEHD@Z
  00364	3b f4		 cmp	 esi, esp
  00366	e8 00 00 00 00	 call	 __RTC_CheckEsp
  0036b	89 85 ac fe ff
	ff		 mov	 DWORD PTR tv290[ebp], eax
  00371	8b 8d ac fe ff
	ff		 mov	 ecx, DWORD PTR tv290[ebp]
  00377	89 8d d4 fe ff
	ff		 mov	 DWORD PTR $T4[ebp], ecx
  0037d	e8 00 00 00 00	 call	 ?eof@?$char_traits@D@std@@SAHXZ ; std::char_traits<char>::eof
  00382	89 85 c8 fe ff
	ff		 mov	 DWORD PTR $T3[ebp], eax
  00388	8d 95 d4 fe ff
	ff		 lea	 edx, DWORD PTR $T4[ebp]
  0038e	52		 push	 edx
  0038f	8d 85 c8 fe ff
	ff		 lea	 eax, DWORD PTR $T3[ebp]
  00395	50		 push	 eax
  00396	e8 00 00 00 00	 call	 ?eq_int_type@?$char_traits@D@std@@SA_NABH0@Z ; std::char_traits<char>::eq_int_type
  0039b	83 c4 08	 add	 esp, 8
  0039e	0f b6 c8	 movzx	 ecx, al
  003a1	85 c9		 test	 ecx, ecx
  003a3	74 0b		 je	 SHORT $LN15@operator

; 810  : 					_Ostr.rdbuf()->sputc(_Ostr.fill())))
; 811  : 					{	// insertion failed, quit
; 812  : 					_State |= ios_base::badbit;

  003a5	8b 45 e8	 mov	 eax, DWORD PTR __State$[ebp]
  003a8	83 c8 04	 or	 eax, 4
  003ab	89 45 e8	 mov	 DWORD PTR __State$[ebp], eax

; 813  : 					break;

  003ae	eb 05		 jmp	 SHORT $LN14@operator
$LN15@operator:

; 814  : 					}

  003b0	e9 2d ff ff ff	 jmp	 $LN5@operator
$LN14@operator:

; 815  : 		_Ostr.width(0);

  003b5	8b f4		 mov	 esi, esp
  003b7	6a 00		 push	 0
  003b9	6a 00		 push	 0
  003bb	8b 45 08	 mov	 eax, DWORD PTR __Ostr$[ebp]
  003be	8b 08		 mov	 ecx, DWORD PTR [eax]
  003c0	8b 55 08	 mov	 edx, DWORD PTR __Ostr$[ebp]
  003c3	03 51 04	 add	 edx, DWORD PTR [ecx+4]
  003c6	8b ca		 mov	 ecx, edx
  003c8	ff 15 00 00 00
	00		 call	 DWORD PTR __imp_?width@ios_base@std@@QAE_J_J@Z
  003ce	3b f4		 cmp	 esi, esp
  003d0	e8 00 00 00 00	 call	 __RTC_CheckEsp
  003d5	eb 26		 jmp	 SHORT $LN19@operator
__catch$??$?6U?$char_traits@D@std@@@std@@YAAAV?$basic_ostream@DU?$char_traits@D@std@@@0@AAV10@PBD@Z$0:

; 816  : 		_CATCH_IO_(_Ostr)

  003d7	8b f4		 mov	 esi, esp
  003d9	6a 01		 push	 1
  003db	6a 04		 push	 4
  003dd	8b 45 08	 mov	 eax, DWORD PTR __Ostr$[ebp]
  003e0	8b 08		 mov	 ecx, DWORD PTR [eax]
  003e2	8b 55 08	 mov	 edx, DWORD PTR __Ostr$[ebp]
  003e5	03 51 04	 add	 edx, DWORD PTR [ecx+4]
  003e8	8b ca		 mov	 ecx, edx
  003ea	ff 15 00 00 00
	00		 call	 DWORD PTR __imp_?setstate@?$basic_ios@DU?$char_traits@D@std@@@std@@QAEXH_N@Z
  003f0	3b f4		 cmp	 esi, esp
  003f2	e8 00 00 00 00	 call	 __RTC_CheckEsp
  003f7	b8 00 00 00 00	 mov	 eax, $LN23@operator
  003fc	c3		 ret	 0
$LN19@operator:
  003fd	c7 45 fc 00 00
	00 00		 mov	 DWORD PTR __$EHRec$[ebp+12], 0
  00404	eb 07		 jmp	 SHORT $LN9@operator
$LN23@operator:
  00406	c7 45 fc 00 00
	00 00		 mov	 DWORD PTR __$EHRec$[ebp+12], 0
$LN9@operator:

; 817  : 		}
; 818  : 
; 819  : 	_Ostr.setstate(_State);

  0040d	8b f4		 mov	 esi, esp
  0040f	6a 00		 push	 0
  00411	8b 45 e8	 mov	 eax, DWORD PTR __State$[ebp]
  00414	50		 push	 eax
  00415	8b 4d 08	 mov	 ecx, DWORD PTR __Ostr$[ebp]
  00418	8b 11		 mov	 edx, DWORD PTR [ecx]
  0041a	8b 4d 08	 mov	 ecx, DWORD PTR __Ostr$[ebp]
  0041d	03 4a 04	 add	 ecx, DWORD PTR [edx+4]
  00420	ff 15 00 00 00
	00		 call	 DWORD PTR __imp_?setstate@?$basic_ios@DU?$char_traits@D@std@@@std@@QAEXH_N@Z
  00426	3b f4		 cmp	 esi, esp
  00428	e8 00 00 00 00	 call	 __RTC_CheckEsp

; 820  : 	return (_Ostr);

  0042d	8b 45 08	 mov	 eax, DWORD PTR __Ostr$[ebp]
  00430	89 85 bc fe ff
	ff		 mov	 DWORD PTR $T2[ebp], eax
  00436	c7 45 fc ff ff
	ff ff		 mov	 DWORD PTR __$EHRec$[ebp+12], -1
  0043d	8d 4d b8	 lea	 ecx, DWORD PTR __Ok$[ebp]
  00440	e8 00 00 00 00	 call	 ??1sentry@?$basic_ostream@DU?$char_traits@D@std@@@std@@QAE@XZ ; std::basic_ostream<char,std::char_traits<char> >::sentry::~sentry
  00445	8b 85 bc fe ff
	ff		 mov	 eax, DWORD PTR $T2[ebp]

; 821  : 	}

  0044b	52		 push	 edx
  0044c	8b cd		 mov	 ecx, ebp
  0044e	50		 push	 eax
  0044f	8d 15 00 00 00
	00		 lea	 edx, DWORD PTR $LN32@operator
  00455	e8 00 00 00 00	 call	 @_RTC_CheckStackVars@8
  0045a	58		 pop	 eax
  0045b	5a		 pop	 edx
  0045c	8b 4d f4	 mov	 ecx, DWORD PTR __$EHRec$[ebp+4]
  0045f	64 89 0d 00 00
	00 00		 mov	 DWORD PTR fs:0, ecx
  00466	59		 pop	 ecx
  00467	5f		 pop	 edi
  00468	5e		 pop	 esi
  00469	5b		 pop	 ebx
  0046a	81 c4 60 01 00
	00		 add	 esp, 352		; 00000160H
  00470	3b ec		 cmp	 ebp, esp
  00472	e8 00 00 00 00	 call	 __RTC_CheckEsp
  00477	8b e5		 mov	 esp, ebp
  00479	5d		 pop	 ebp
  0047a	c3		 ret	 0
  0047b	90		 npad	 1
$LN32@operator:
  0047c	01 00 00 00	 DD	 1
  00480	00 00 00 00	 DD	 $LN31@operator
$LN31@operator:
  00484	b8 ff ff ff	 DD	 -72			; ffffffb8H
  00488	08 00 00 00	 DD	 8
  0048c	00 00 00 00	 DD	 $LN29@operator
$LN29@operator:
  00490	5f		 DB	 95			; 0000005fH
  00491	4f		 DB	 79			; 0000004fH
  00492	6b		 DB	 107			; 0000006bH
  00493	00		 DB	 0
_TEXT	ENDS
;	COMDAT text$x
text$x	SEGMENT
__unwindfunclet$??$?6U?$char_traits@D@std@@@std@@YAAAV?$basic_ostream@DU?$char_traits@D@std@@@0@AAV10@PBD@Z$2:
  00000	8d 4d b8	 lea	 ecx, DWORD PTR __Ok$[ebp]
  00003	e9 00 00 00 00	 jmp	 ??1sentry@?$basic_ostream@DU?$char_traits@D@std@@@std@@QAE@XZ ; std::basic_ostream<char,std::char_traits<char> >::sentry::~sentry
__ehhandler$??$?6U?$char_traits@D@std@@@std@@YAAAV?$basic_ostream@DU?$char_traits@D@std@@@0@AAV10@PBD@Z:
  00008	8b 54 24 08	 mov	 edx, DWORD PTR [esp+8]
  0000c	8d 42 0c	 lea	 eax, DWORD PTR [edx+12]
  0000f	8b 8a 9c fe ff
	ff		 mov	 ecx, DWORD PTR [edx-356]
  00015	33 c8		 xor	 ecx, eax
  00017	e8 00 00 00 00	 call	 @__security_check_cookie@4
  0001c	b8 00 00 00 00	 mov	 eax, OFFSET __ehfuncinfo$??$?6U?$char_traits@D@std@@@std@@YAAAV?$basic_ostream@DU?$char_traits@D@std@@@0@AAV10@PBD@Z
  00021	e9 00 00 00 00	 jmp	 ___CxxFrameHandler3
text$x	ENDS
??$?6U?$char_traits@D@std@@@std@@YAAAV?$basic_ostream@DU?$char_traits@D@std@@@0@AAV10@PBD@Z ENDP ; std::operator<<<std::char_traits<char> >
; Function compile flags: /Odtp /RTCsu /ZI
; File c:\users\choze\documents\github\kpi-computer-engineering\3 семестр\системное программирование\лабы\2\вариант 1\lab2\main.cpp
;	COMDAT _main
_TEXT	SEGMENT
_time$ = -8						; size = 4
_main	PROC						; COMDAT

; 69   : {

  00000	55		 push	 ebp
  00001	8b ec		 mov	 ebp, esp
  00003	81 ec cc 00 00
	00		 sub	 esp, 204		; 000000ccH
  00009	53		 push	 ebx
  0000a	56		 push	 esi
  0000b	57		 push	 edi
  0000c	8d bd 34 ff ff
	ff		 lea	 edi, DWORD PTR [ebp-204]
  00012	b9 33 00 00 00	 mov	 ecx, 51			; 00000033H
  00017	b8 cc cc cc cc	 mov	 eax, -858993460		; ccccccccH
  0001c	f3 ab		 rep stosd

; 70   : 	int time = clock();

  0001e	8b f4		 mov	 esi, esp
  00020	ff 15 00 00 00
	00		 call	 DWORD PTR __imp__clock
  00026	3b f4		 cmp	 esi, esp
  00028	e8 00 00 00 00	 call	 __RTC_CheckEsp
  0002d	89 45 f8	 mov	 DWORD PTR _time$[ebp], eax

; 71   : 	simple_func();

  00030	e8 00 00 00 00	 call	 ?simple_func@@YAHXZ	; simple_func

; 72   : 	std::cout << "Time without asm: " << clock() - time << "ms \n \n";

  00035	68 00 00 00 00	 push	 OFFSET ??_C@_06GJJKBDMB@ms?5?6?5?6?$AA@
  0003a	8b f4		 mov	 esi, esp
  0003c	ff 15 00 00 00
	00		 call	 DWORD PTR __imp__clock
  00042	3b f4		 cmp	 esi, esp
  00044	e8 00 00 00 00	 call	 __RTC_CheckEsp
  00049	2b 45 f8	 sub	 eax, DWORD PTR _time$[ebp]
  0004c	8b f4		 mov	 esi, esp
  0004e	50		 push	 eax
  0004f	68 00 00 00 00	 push	 OFFSET ??_C@_0BD@JJJFPAHA@Time?5without?5asm?3?5?$AA@
  00054	a1 00 00 00 00	 mov	 eax, DWORD PTR __imp_?cout@std@@3V?$basic_ostream@DU?$char_traits@D@std@@@1@A
  00059	50		 push	 eax
  0005a	e8 00 00 00 00	 call	 ??$?6U?$char_traits@D@std@@@std@@YAAAV?$basic_ostream@DU?$char_traits@D@std@@@0@AAV10@PBD@Z ; std::operator<<<std::char_traits<char> >
  0005f	83 c4 08	 add	 esp, 8
  00062	8b c8		 mov	 ecx, eax
  00064	ff 15 00 00 00
	00		 call	 DWORD PTR __imp_??6?$basic_ostream@DU?$char_traits@D@std@@@std@@QAEAAV01@J@Z
  0006a	3b f4		 cmp	 esi, esp
  0006c	e8 00 00 00 00	 call	 __RTC_CheckEsp
  00071	50		 push	 eax
  00072	e8 00 00 00 00	 call	 ??$?6U?$char_traits@D@std@@@std@@YAAAV?$basic_ostream@DU?$char_traits@D@std@@@0@AAV10@PBD@Z ; std::operator<<<std::char_traits<char> >
  00077	83 c4 08	 add	 esp, 8

; 73   : 
; 74   : 	time = clock();

  0007a	8b f4		 mov	 esi, esp
  0007c	ff 15 00 00 00
	00		 call	 DWORD PTR __imp__clock
  00082	3b f4		 cmp	 esi, esp
  00084	e8 00 00 00 00	 call	 __RTC_CheckEsp
  00089	89 45 f8	 mov	 DWORD PTR _time$[ebp], eax

; 75   : 	asm_func();

  0008c	e8 00 00 00 00	 call	 ?asm_func@@YAHXZ	; asm_func

; 76   : 	std::cout << "Asm time: " << clock() - time << "ms \n \n";

  00091	68 00 00 00 00	 push	 OFFSET ??_C@_06GJJKBDMB@ms?5?6?5?6?$AA@
  00096	8b f4		 mov	 esi, esp
  00098	ff 15 00 00 00
	00		 call	 DWORD PTR __imp__clock
  0009e	3b f4		 cmp	 esi, esp
  000a0	e8 00 00 00 00	 call	 __RTC_CheckEsp
  000a5	2b 45 f8	 sub	 eax, DWORD PTR _time$[ebp]
  000a8	8b f4		 mov	 esi, esp
  000aa	50		 push	 eax
  000ab	68 00 00 00 00	 push	 OFFSET ??_C@_0L@CMGEOIIB@Asm?5time?3?5?$AA@
  000b0	a1 00 00 00 00	 mov	 eax, DWORD PTR __imp_?cout@std@@3V?$basic_ostream@DU?$char_traits@D@std@@@1@A
  000b5	50		 push	 eax
  000b6	e8 00 00 00 00	 call	 ??$?6U?$char_traits@D@std@@@std@@YAAAV?$basic_ostream@DU?$char_traits@D@std@@@0@AAV10@PBD@Z ; std::operator<<<std::char_traits<char> >
  000bb	83 c4 08	 add	 esp, 8
  000be	8b c8		 mov	 ecx, eax
  000c0	ff 15 00 00 00
	00		 call	 DWORD PTR __imp_??6?$basic_ostream@DU?$char_traits@D@std@@@std@@QAEAAV01@J@Z
  000c6	3b f4		 cmp	 esi, esp
  000c8	e8 00 00 00 00	 call	 __RTC_CheckEsp
  000cd	50		 push	 eax
  000ce	e8 00 00 00 00	 call	 ??$?6U?$char_traits@D@std@@@std@@YAAAV?$basic_ostream@DU?$char_traits@D@std@@@0@AAV10@PBD@Z ; std::operator<<<std::char_traits<char> >
  000d3	83 c4 08	 add	 esp, 8

; 77   : 
; 78   : 	return 0;

  000d6	33 c0		 xor	 eax, eax

; 79   : }

  000d8	5f		 pop	 edi
  000d9	5e		 pop	 esi
  000da	5b		 pop	 ebx
  000db	81 c4 cc 00 00
	00		 add	 esp, 204		; 000000ccH
  000e1	3b ec		 cmp	 ebp, esp
  000e3	e8 00 00 00 00	 call	 __RTC_CheckEsp
  000e8	8b e5		 mov	 esp, ebp
  000ea	5d		 pop	 ebp
  000eb	c3		 ret	 0
_main	ENDP
_TEXT	ENDS
; Function compile flags: /Odtp /RTCsu /ZI
; File c:\users\choze\documents\github\kpi-computer-engineering\3 семестр\системное программирование\лабы\2\вариант 1\lab2\main.cpp
;	COMDAT ?simple_func@@YAHXZ
_TEXT	SEGMENT
_j$ = -20						; size = 4
_i$ = -8						; size = 4
?simple_func@@YAHXZ PROC				; simple_func, COMDAT

; 42   : {

  00000	55		 push	 ebp
  00001	8b ec		 mov	 ebp, esp
  00003	81 ec d8 00 00
	00		 sub	 esp, 216		; 000000d8H
  00009	53		 push	 ebx
  0000a	56		 push	 esi
  0000b	57		 push	 edi
  0000c	8d bd 28 ff ff
	ff		 lea	 edi, DWORD PTR [ebp-216]
  00012	b9 36 00 00 00	 mov	 ecx, 54			; 00000036H
  00017	b8 cc cc cc cc	 mov	 eax, -858993460		; ccccccccH
  0001c	f3 ab		 rep stosd

; 43   : 	int i, j;
; 44   : 	k = 1;

  0001e	c7 05 00 00 00
	00 01 00 00 00	 mov	 DWORD PTR ?k@@3HA, 1	; k

; 45   : 	i = 0;

  00028	c7 45 f8 00 00
	00 00		 mov	 DWORD PTR _i$[ebp], 0
$LN4@simple_fun:

; 46   : 
; 47   : 	do
; 48   : 	{
; 49   : 		j = i + k * 2;

  0002f	a1 00 00 00 00	 mov	 eax, DWORD PTR ?k@@3HA	; k
  00034	8b 4d f8	 mov	 ecx, DWORD PTR _i$[ebp]
  00037	8d 14 41	 lea	 edx, DWORD PTR [ecx+eax*2]
  0003a	89 55 ec	 mov	 DWORD PTR _j$[ebp], edx

; 50   : 		if (j > 11)

  0003d	83 7d ec 0b	 cmp	 DWORD PTR _j$[ebp], 11	; 0000000bH
  00041	7e 0f		 jle	 SHORT $LN8@simple_fun

; 51   : 			A[i] = j;

  00043	8b 45 f8	 mov	 eax, DWORD PTR _i$[ebp]
  00046	8b 4d ec	 mov	 ecx, DWORD PTR _j$[ebp]
  00049	89 0c 85 00 00
	00 00		 mov	 DWORD PTR ?A@@3PAHA[eax*4], ecx

; 52   : 		else

  00050	eb 1d		 jmp	 SHORT $LN9@simple_fun
$LN8@simple_fun:

; 53   : 		{
; 54   : 			k += 1;

  00052	a1 00 00 00 00	 mov	 eax, DWORD PTR ?k@@3HA	; k
  00057	83 c0 01	 add	 eax, 1
  0005a	a3 00 00 00 00	 mov	 DWORD PTR ?k@@3HA, eax	; k

; 55   : 			A[i] = k;

  0005f	8b 45 f8	 mov	 eax, DWORD PTR _i$[ebp]
  00062	8b 0d 00 00 00
	00		 mov	 ecx, DWORD PTR ?k@@3HA	; k
  00068	89 0c 85 00 00
	00 00		 mov	 DWORD PTR ?A@@3PAHA[eax*4], ecx
$LN9@simple_fun:

; 56   : 		}
; 57   : 
; 58   : 		i++;

  0006f	8b 45 f8	 mov	 eax, DWORD PTR _i$[ebp]
  00072	83 c0 01	 add	 eax, 1
  00075	89 45 f8	 mov	 DWORD PTR _i$[ebp], eax

; 59   : 	} while (i < 8);

  00078	83 7d f8 08	 cmp	 DWORD PTR _i$[ebp], 8
  0007c	7c b1		 jl	 SHORT $LN4@simple_fun

; 60   : 
; 61   : 	for (i = 0; i < 8; i++)

  0007e	c7 45 f8 00 00
	00 00		 mov	 DWORD PTR _i$[ebp], 0
  00085	eb 09		 jmp	 SHORT $LN7@simple_fun
$LN5@simple_fun:
  00087	8b 45 f8	 mov	 eax, DWORD PTR _i$[ebp]
  0008a	83 c0 01	 add	 eax, 1
  0008d	89 45 f8	 mov	 DWORD PTR _i$[ebp], eax
$LN7@simple_fun:
  00090	83 7d f8 08	 cmp	 DWORD PTR _i$[ebp], 8
  00094	7d 1a		 jge	 SHORT $LN6@simple_fun

; 62   : 		printf("%d ", A[i]);

  00096	8b 45 f8	 mov	 eax, DWORD PTR _i$[ebp]
  00099	8b 0c 85 00 00
	00 00		 mov	 ecx, DWORD PTR ?A@@3PAHA[eax*4]
  000a0	51		 push	 ecx
  000a1	68 00 00 00 00	 push	 OFFSET ??_C@_03JDANDILB@?$CFd?5?$AA@
  000a6	e8 00 00 00 00	 call	 _printf
  000ab	83 c4 08	 add	 esp, 8
  000ae	eb d7		 jmp	 SHORT $LN5@simple_fun
$LN6@simple_fun:

; 63   : 	printf("\n");

  000b0	68 00 00 00 00	 push	 OFFSET ??_C@_01EEMJAFIK@?6?$AA@
  000b5	e8 00 00 00 00	 call	 _printf
  000ba	83 c4 04	 add	 esp, 4

; 64   : 
; 65   : 	return 0;

  000bd	33 c0		 xor	 eax, eax

; 66   : }

  000bf	5f		 pop	 edi
  000c0	5e		 pop	 esi
  000c1	5b		 pop	 ebx
  000c2	81 c4 d8 00 00
	00		 add	 esp, 216		; 000000d8H
  000c8	3b ec		 cmp	 ebp, esp
  000ca	e8 00 00 00 00	 call	 __RTC_CheckEsp
  000cf	8b e5		 mov	 esp, ebp
  000d1	5d		 pop	 ebp
  000d2	c3		 ret	 0
?simple_func@@YAHXZ ENDP				; simple_func
_TEXT	ENDS
; Function compile flags: /Odtp /RTCsu /ZI
; File c:\users\choze\documents\github\kpi-computer-engineering\3 семестр\системное программирование\лабы\2\вариант 1\lab2\main.cpp
;	COMDAT ?asm_func@@YAHXZ
_TEXT	SEGMENT
_i$1 = -8						; size = 4
?asm_func@@YAHXZ PROC					; asm_func, COMDAT

; 9    : {

  00000	55		 push	 ebp
  00001	8b ec		 mov	 ebp, esp
  00003	81 ec cc 00 00
	00		 sub	 esp, 204		; 000000ccH
  00009	53		 push	 ebx
  0000a	56		 push	 esi
  0000b	57		 push	 edi
  0000c	8d bd 34 ff ff
	ff		 lea	 edi, DWORD PTR [ebp-204]
  00012	b9 33 00 00 00	 mov	 ecx, 51			; 00000033H
  00017	b8 cc cc cc cc	 mov	 eax, -858993460		; ccccccccH
  0001c	f3 ab		 rep stosd

; 10   : 	_asm
; 11   : 	{
; 12   : 		mov k, 1

  0001e	c7 05 00 00 00
	00 01 00 00 00	 mov	 DWORD PTR ?k@@3HA, 1	; k

; 13   : 		mov EAX, 0 // i = 0

  00028	b8 00 00 00 00	 mov	 eax, 0
$repeat$6:

; 14   : 		repeat:
; 15   : 		mov ECX, k

  0002d	8b 0d 00 00 00
	00		 mov	 ecx, DWORD PTR ?k@@3HA	; k

; 16   : 		shl ECX, 1

  00033	d1 e1		 shl	 ecx, 1

; 17   : 		mov EBX, k

  00035	8b 1d 00 00 00
	00		 mov	 ebx, DWORD PTR ?k@@3HA	; k

; 18   : 		add EBX, EAX // j = i + k * 2

  0003b	03 d8		 add	 ebx, eax

; 19   : 		cmp EBX, 11

  0003d	83 fb 0b	 cmp	 ebx, 11			; 0000000bH

; 20   : 		jbe SHORT if_not

  00040	76 0e		 jbe	 SHORT $if_not$7

; 21   : 		mov ECX, k

  00042	8b 0d 00 00 00
	00		 mov	 ecx, DWORD PTR ?k@@3HA	; k

; 22   : 		mov DWORD PTR A[EAX], ECX

  00048	89 88 00 00 00
	00		 mov	 DWORD PTR ?A@@3PAHA[eax], ecx

; 23   : 		jmp if_end

  0004e	eb 12		 jmp	 SHORT $if_end$8
$if_not$7:

; 24   : 		if_not:
; 25   : 		inc k

  00050	ff 05 00 00 00
	00		 inc	 DWORD PTR ?k@@3HA	; k

; 26   : 		mov ECX, k

  00056	8b 0d 00 00 00
	00		 mov	 ecx, DWORD PTR ?k@@3HA	; k

; 27   : 		mov DWORD PTR A[EAX], ECX

  0005c	89 88 00 00 00
	00		 mov	 DWORD PTR ?A@@3PAHA[eax], ecx
$if_end$8:

; 28   : 		if_end:
; 29   : 		add EAX, 4

  00062	83 c0 04	 add	 eax, 4

; 30   : 		cmp EAX, 8

  00065	83 f8 08	 cmp	 eax, 8

; 31   : 		jb SHORT repeat

  00068	72 c3		 jb	 SHORT $repeat$6

; 32   : 	}
; 33   : 
; 34   : 	for (int i = 0; i < 8; i++)

  0006a	c7 45 f8 00 00
	00 00		 mov	 DWORD PTR _i$1[ebp], 0
  00071	eb 09		 jmp	 SHORT $LN4@asm_func
$LN2@asm_func:
  00073	8b 45 f8	 mov	 eax, DWORD PTR _i$1[ebp]
  00076	83 c0 01	 add	 eax, 1
  00079	89 45 f8	 mov	 DWORD PTR _i$1[ebp], eax
$LN4@asm_func:
  0007c	83 7d f8 08	 cmp	 DWORD PTR _i$1[ebp], 8
  00080	7d 1a		 jge	 SHORT $LN3@asm_func

; 35   : 		printf("%d ", A[i]);

  00082	8b 45 f8	 mov	 eax, DWORD PTR _i$1[ebp]
  00085	8b 0c 85 00 00
	00 00		 mov	 ecx, DWORD PTR ?A@@3PAHA[eax*4]
  0008c	51		 push	 ecx
  0008d	68 00 00 00 00	 push	 OFFSET ??_C@_03JDANDILB@?$CFd?5?$AA@
  00092	e8 00 00 00 00	 call	 _printf
  00097	83 c4 08	 add	 esp, 8
  0009a	eb d7		 jmp	 SHORT $LN2@asm_func
$LN3@asm_func:

; 36   : 	printf("\n");

  0009c	68 00 00 00 00	 push	 OFFSET ??_C@_01EEMJAFIK@?6?$AA@
  000a1	e8 00 00 00 00	 call	 _printf
  000a6	83 c4 04	 add	 esp, 4

; 37   : 
; 38   : 	return 0;

  000a9	33 c0		 xor	 eax, eax

; 39   : }

  000ab	5f		 pop	 edi
  000ac	5e		 pop	 esi
  000ad	5b		 pop	 ebx
  000ae	81 c4 cc 00 00
	00		 add	 esp, 204		; 000000ccH
  000b4	3b ec		 cmp	 ebp, esp
  000b6	e8 00 00 00 00	 call	 __RTC_CheckEsp
  000bb	8b e5		 mov	 esp, ebp
  000bd	5d		 pop	 ebp
  000be	c3		 ret	 0
?asm_func@@YAHXZ ENDP					; asm_func
_TEXT	ENDS
; Function compile flags: /Odtp /RTCsu /ZI
; File c:\program files (x86)\microsoft visual studio 14.0\vc\include\iosfwd
;	COMDAT ?eof@?$char_traits@D@std@@SAHXZ
_TEXT	SEGMENT
?eof@?$char_traits@D@std@@SAHXZ PROC			; std::char_traits<char>::eof, COMDAT

; 605  : 		{	// return end-of-file metacharacter

  00000	55		 push	 ebp
  00001	8b ec		 mov	 ebp, esp
  00003	81 ec c0 00 00
	00		 sub	 esp, 192		; 000000c0H
  00009	53		 push	 ebx
  0000a	56		 push	 esi
  0000b	57		 push	 edi
  0000c	8d bd 40 ff ff
	ff		 lea	 edi, DWORD PTR [ebp-192]
  00012	b9 30 00 00 00	 mov	 ecx, 48			; 00000030H
  00017	b8 cc cc cc cc	 mov	 eax, -858993460		; ccccccccH
  0001c	f3 ab		 rep stosd

; 606  : 		return (EOF);

  0001e	83 c8 ff	 or	 eax, -1

; 607  : 		}

  00021	5f		 pop	 edi
  00022	5e		 pop	 esi
  00023	5b		 pop	 ebx
  00024	8b e5		 mov	 esp, ebp
  00026	5d		 pop	 ebp
  00027	c3		 ret	 0
?eof@?$char_traits@D@std@@SAHXZ ENDP			; std::char_traits<char>::eof
_TEXT	ENDS
; Function compile flags: /Odtp /RTCsu /ZI
; File c:\program files (x86)\microsoft visual studio 14.0\vc\include\iosfwd
;	COMDAT ?eq_int_type@?$char_traits@D@std@@SA_NABH0@Z
_TEXT	SEGMENT
tv65 = -196						; size = 4
__Left$ = 8						; size = 4
__Right$ = 12						; size = 4
?eq_int_type@?$char_traits@D@std@@SA_NABH0@Z PROC	; std::char_traits<char>::eq_int_type, COMDAT

; 594  : 		{	// test for metacharacter equality

  00000	55		 push	 ebp
  00001	8b ec		 mov	 ebp, esp
  00003	81 ec c4 00 00
	00		 sub	 esp, 196		; 000000c4H
  00009	53		 push	 ebx
  0000a	56		 push	 esi
  0000b	57		 push	 edi
  0000c	8d bd 3c ff ff
	ff		 lea	 edi, DWORD PTR [ebp-196]
  00012	b9 31 00 00 00	 mov	 ecx, 49			; 00000031H
  00017	b8 cc cc cc cc	 mov	 eax, -858993460		; ccccccccH
  0001c	f3 ab		 rep stosd

; 595  : 		return (_Left == _Right);

  0001e	8b 45 08	 mov	 eax, DWORD PTR __Left$[ebp]
  00021	8b 4d 0c	 mov	 ecx, DWORD PTR __Right$[ebp]
  00024	8b 10		 mov	 edx, DWORD PTR [eax]
  00026	3b 11		 cmp	 edx, DWORD PTR [ecx]
  00028	75 0c		 jne	 SHORT $LN3@eq_int_typ
  0002a	c7 85 3c ff ff
	ff 01 00 00 00	 mov	 DWORD PTR tv65[ebp], 1
  00034	eb 0a		 jmp	 SHORT $LN4@eq_int_typ
$LN3@eq_int_typ:
  00036	c7 85 3c ff ff
	ff 00 00 00 00	 mov	 DWORD PTR tv65[ebp], 0
$LN4@eq_int_typ:
  00040	8a 85 3c ff ff
	ff		 mov	 al, BYTE PTR tv65[ebp]

; 596  : 		}

  00046	5f		 pop	 edi
  00047	5e		 pop	 esi
  00048	5b		 pop	 ebx
  00049	8b e5		 mov	 esp, ebp
  0004b	5d		 pop	 ebp
  0004c	c3		 ret	 0
?eq_int_type@?$char_traits@D@std@@SA_NABH0@Z ENDP	; std::char_traits<char>::eq_int_type
_TEXT	ENDS
; Function compile flags: /Odtp /RTCsu /ZI
; File c:\program files (x86)\microsoft visual studio 14.0\vc\include\iosfwd
;	COMDAT ?length@?$char_traits@D@std@@SAIPBD@Z
_TEXT	SEGMENT
tv68 = -196						; size = 4
__First$ = 8						; size = 4
?length@?$char_traits@D@std@@SAIPBD@Z PROC		; std::char_traits<char>::length, COMDAT

; 522  : 		{	// find length of null-terminated string

  00000	55		 push	 ebp
  00001	8b ec		 mov	 ebp, esp
  00003	81 ec c4 00 00
	00		 sub	 esp, 196		; 000000c4H
  00009	53		 push	 ebx
  0000a	56		 push	 esi
  0000b	57		 push	 edi
  0000c	8d bd 3c ff ff
	ff		 lea	 edi, DWORD PTR [ebp-196]
  00012	b9 31 00 00 00	 mov	 ecx, 49			; 00000031H
  00017	b8 cc cc cc cc	 mov	 eax, -858993460		; ccccccccH
  0001c	f3 ab		 rep stosd

; 523  : 		return (*_First == 0 ? 0

  0001e	8b 45 08	 mov	 eax, DWORD PTR __First$[ebp]
  00021	0f be 08	 movsx	 ecx, BYTE PTR [eax]
  00024	85 c9		 test	 ecx, ecx
  00026	75 0c		 jne	 SHORT $LN3@length
  00028	c7 85 3c ff ff
	ff 00 00 00 00	 mov	 DWORD PTR tv68[ebp], 0
  00032	eb 12		 jmp	 SHORT $LN4@length
$LN3@length:
  00034	8b 55 08	 mov	 edx, DWORD PTR __First$[ebp]
  00037	52		 push	 edx
  00038	e8 00 00 00 00	 call	 _strlen
  0003d	83 c4 04	 add	 esp, 4
  00040	89 85 3c ff ff
	ff		 mov	 DWORD PTR tv68[ebp], eax
$LN4@length:
  00046	8b 85 3c ff ff
	ff		 mov	 eax, DWORD PTR tv68[ebp]

; 524  : 			: _CSTD strlen(_First));
; 525  : 		}

  0004c	5f		 pop	 edi
  0004d	5e		 pop	 esi
  0004e	5b		 pop	 ebx
  0004f	81 c4 c4 00 00
	00		 add	 esp, 196		; 000000c4H
  00055	3b ec		 cmp	 ebp, esp
  00057	e8 00 00 00 00	 call	 __RTC_CheckEsp
  0005c	8b e5		 mov	 esp, ebp
  0005e	5d		 pop	 ebp
  0005f	c3		 ret	 0
?length@?$char_traits@D@std@@SAIPBD@Z ENDP		; std::char_traits<char>::length
_TEXT	ENDS
; Function compile flags: /Odtp /RTCsu /ZI
; File c:\program files (x86)\windows kits\10\include\10.0.10240.0\ucrt\stdio.h
;	COMDAT _printf
_TEXT	SEGMENT
__ArgList$ = -20					; size = 4
__Result$ = -8						; size = 4
__Format$ = 8						; size = 4
_printf	PROC						; COMDAT

; 950  : {

  00000	55		 push	 ebp
  00001	8b ec		 mov	 ebp, esp
  00003	81 ec d8 00 00
	00		 sub	 esp, 216		; 000000d8H
  00009	53		 push	 ebx
  0000a	56		 push	 esi
  0000b	57		 push	 edi
  0000c	8d bd 28 ff ff
	ff		 lea	 edi, DWORD PTR [ebp-216]
  00012	b9 36 00 00 00	 mov	 ecx, 54			; 00000036H
  00017	b8 cc cc cc cc	 mov	 eax, -858993460		; ccccccccH
  0001c	f3 ab		 rep stosd

; 951  :     int _Result;
; 952  :     va_list _ArgList;
; 953  :     __crt_va_start(_ArgList, _Format);

  0001e	e8 00 00 00 00	 call	 ??$__vcrt_va_start_verify_argument_type@QBD@@YAXXZ ; __vcrt_va_start_verify_argument_type<char const * const>
  00023	8d 45 0c	 lea	 eax, DWORD PTR __Format$[ebp+4]
  00026	89 45 ec	 mov	 DWORD PTR __ArgList$[ebp], eax

; 954  :     _Result = _vfprintf_l(stdout, _Format, NULL, _ArgList);

  00029	8b 45 ec	 mov	 eax, DWORD PTR __ArgList$[ebp]
  0002c	50		 push	 eax
  0002d	6a 00		 push	 0
  0002f	8b 4d 08	 mov	 ecx, DWORD PTR __Format$[ebp]
  00032	51		 push	 ecx
  00033	8b f4		 mov	 esi, esp
  00035	6a 01		 push	 1
  00037	ff 15 00 00 00
	00		 call	 DWORD PTR __imp____acrt_iob_func
  0003d	83 c4 04	 add	 esp, 4
  00040	3b f4		 cmp	 esi, esp
  00042	e8 00 00 00 00	 call	 __RTC_CheckEsp
  00047	50		 push	 eax
  00048	e8 00 00 00 00	 call	 __vfprintf_l
  0004d	83 c4 10	 add	 esp, 16			; 00000010H
  00050	89 45 f8	 mov	 DWORD PTR __Result$[ebp], eax

; 955  :     __crt_va_end(_ArgList);

  00053	c7 45 ec 00 00
	00 00		 mov	 DWORD PTR __ArgList$[ebp], 0

; 956  :     return _Result;

  0005a	8b 45 f8	 mov	 eax, DWORD PTR __Result$[ebp]

; 957  : }

  0005d	5f		 pop	 edi
  0005e	5e		 pop	 esi
  0005f	5b		 pop	 ebx
  00060	81 c4 d8 00 00
	00		 add	 esp, 216		; 000000d8H
  00066	3b ec		 cmp	 ebp, esp
  00068	e8 00 00 00 00	 call	 __RTC_CheckEsp
  0006d	8b e5		 mov	 esp, ebp
  0006f	5d		 pop	 ebp
  00070	c3		 ret	 0
_printf	ENDP
_TEXT	ENDS
; Function compile flags: /Odtp /RTCsu /ZI
; File c:\program files (x86)\microsoft visual studio 14.0\vc\include\vadefs.h
;	COMDAT ??$__vcrt_va_start_verify_argument_type@QBD@@YAXXZ
_TEXT	SEGMENT
??$__vcrt_va_start_verify_argument_type@QBD@@YAXXZ PROC	; __vcrt_va_start_verify_argument_type<char const * const>, COMDAT

; 144  :         {

  00000	55		 push	 ebp
  00001	8b ec		 mov	 ebp, esp
  00003	81 ec c0 00 00
	00		 sub	 esp, 192		; 000000c0H
  00009	53		 push	 ebx
  0000a	56		 push	 esi
  0000b	57		 push	 edi
  0000c	8d bd 40 ff ff
	ff		 lea	 edi, DWORD PTR [ebp-192]
  00012	b9 30 00 00 00	 mov	 ecx, 48			; 00000030H
  00017	b8 cc cc cc cc	 mov	 eax, -858993460		; ccccccccH
  0001c	f3 ab		 rep stosd

; 145  :             static_assert(!__vcrt_va_list_is_reference<_Ty>::__the_value, "va_start argument must not have reference type and must not be parenthesized");
; 146  :         }

  0001e	5f		 pop	 edi
  0001f	5e		 pop	 esi
  00020	5b		 pop	 ebx
  00021	8b e5		 mov	 esp, ebp
  00023	5d		 pop	 ebp
  00024	c3		 ret	 0
??$__vcrt_va_start_verify_argument_type@QBD@@YAXXZ ENDP	; __vcrt_va_start_verify_argument_type<char const * const>
_TEXT	ENDS
; Function compile flags: /Odtp /RTCsu /ZI
; File c:\program files (x86)\windows kits\10\include\10.0.10240.0\ucrt\stdio.h
;	COMDAT __vfprintf_l
_TEXT	SEGMENT
__Stream$ = 8						; size = 4
__Format$ = 12						; size = 4
__Locale$ = 16						; size = 4
__ArgList$ = 20						; size = 4
__vfprintf_l PROC					; COMDAT

; 638  : {

  00000	55		 push	 ebp
  00001	8b ec		 mov	 ebp, esp
  00003	81 ec c0 00 00
	00		 sub	 esp, 192		; 000000c0H
  00009	53		 push	 ebx
  0000a	56		 push	 esi
  0000b	57		 push	 edi
  0000c	8d bd 40 ff ff
	ff		 lea	 edi, DWORD PTR [ebp-192]
  00012	b9 30 00 00 00	 mov	 ecx, 48			; 00000030H
  00017	b8 cc cc cc cc	 mov	 eax, -858993460		; ccccccccH
  0001c	f3 ab		 rep stosd

; 639  :     return __stdio_common_vfprintf(_CRT_INTERNAL_LOCAL_PRINTF_OPTIONS, _Stream, _Format, _Locale, _ArgList);

  0001e	8b f4		 mov	 esi, esp
  00020	8b 45 14	 mov	 eax, DWORD PTR __ArgList$[ebp]
  00023	50		 push	 eax
  00024	8b 4d 10	 mov	 ecx, DWORD PTR __Locale$[ebp]
  00027	51		 push	 ecx
  00028	8b 55 0c	 mov	 edx, DWORD PTR __Format$[ebp]
  0002b	52		 push	 edx
  0002c	8b 45 08	 mov	 eax, DWORD PTR __Stream$[ebp]
  0002f	50		 push	 eax
  00030	e8 00 00 00 00	 call	 ___local_stdio_printf_options
  00035	8b 48 04	 mov	 ecx, DWORD PTR [eax+4]
  00038	51		 push	 ecx
  00039	8b 10		 mov	 edx, DWORD PTR [eax]
  0003b	52		 push	 edx
  0003c	ff 15 00 00 00
	00		 call	 DWORD PTR __imp____stdio_common_vfprintf
  00042	83 c4 18	 add	 esp, 24			; 00000018H
  00045	3b f4		 cmp	 esi, esp
  00047	e8 00 00 00 00	 call	 __RTC_CheckEsp

; 640  : }

  0004c	5f		 pop	 edi
  0004d	5e		 pop	 esi
  0004e	5b		 pop	 ebx
  0004f	81 c4 c0 00 00
	00		 add	 esp, 192		; 000000c0H
  00055	3b ec		 cmp	 ebp, esp
  00057	e8 00 00 00 00	 call	 __RTC_CheckEsp
  0005c	8b e5		 mov	 esp, ebp
  0005e	5d		 pop	 ebp
  0005f	c3		 ret	 0
__vfprintf_l ENDP
_TEXT	ENDS
; Function compile flags: /Odtp /RTCsu /ZI
; File c:\program files (x86)\windows kits\10\include\10.0.10240.0\ucrt\corecrt_stdio_config.h
;	COMDAT ___local_stdio_printf_options
_TEXT	SEGMENT
___local_stdio_printf_options PROC			; COMDAT

; 73   : {

  00000	55		 push	 ebp
  00001	8b ec		 mov	 ebp, esp
  00003	81 ec c0 00 00
	00		 sub	 esp, 192		; 000000c0H
  00009	53		 push	 ebx
  0000a	56		 push	 esi
  0000b	57		 push	 edi
  0000c	8d bd 40 ff ff
	ff		 lea	 edi, DWORD PTR [ebp-192]
  00012	b9 30 00 00 00	 mov	 ecx, 48			; 00000030H
  00017	b8 cc cc cc cc	 mov	 eax, -858993460		; ccccccccH
  0001c	f3 ab		 rep stosd

; 74   :     static unsigned __int64 _OptionsStorage;
; 75   :     return &_OptionsStorage;

  0001e	b8 00 00 00 00	 mov	 eax, OFFSET ?_OptionsStorage@?1??__local_stdio_printf_options@@9@4_KA ; `__local_stdio_printf_options'::`2'::_OptionsStorage

; 76   : }

  00023	5f		 pop	 edi
  00024	5e		 pop	 esi
  00025	5b		 pop	 ebx
  00026	8b e5		 mov	 esp, ebp
  00028	5d		 pop	 ebp
  00029	c3		 ret	 0
___local_stdio_printf_options ENDP
_TEXT	ENDS
; Function compile flags: /Odtp /RTCsu /ZI
; File c:\users\choze\documents\github\kpi-computer-engineering\3 семестр\системное программирование\лабы\2\вариант 1\lab2\main.cpp
;	COMDAT ?__empty_global_delete@@YAXPAXI@Z
_TEXT	SEGMENT
___formal$ = 8						; size = 4
___formal$ = 12						; size = 4
?__empty_global_delete@@YAXPAXI@Z PROC			; __empty_global_delete, COMDAT

  00000	55		 push	 ebp
  00001	8b ec		 mov	 ebp, esp
  00003	81 ec c0 00 00
	00		 sub	 esp, 192		; 000000c0H
  00009	53		 push	 ebx
  0000a	56		 push	 esi
  0000b	57		 push	 edi
  0000c	8d bd 40 ff ff
	ff		 lea	 edi, DWORD PTR [ebp-192]
  00012	b9 30 00 00 00	 mov	 ecx, 48			; 00000030H
  00017	b8 cc cc cc cc	 mov	 eax, -858993460		; ccccccccH
  0001c	f3 ab		 rep stosd
  0001e	5f		 pop	 edi
  0001f	5e		 pop	 esi
  00020	5b		 pop	 ebx
  00021	8b e5		 mov	 esp, ebp
  00023	5d		 pop	 ebp
  00024	c3		 ret	 0
?__empty_global_delete@@YAXPAXI@Z ENDP			; __empty_global_delete
_TEXT	ENDS
; Function compile flags: /Odtp /RTCsu /ZI
; File c:\users\choze\documents\github\kpi-computer-engineering\3 семестр\системное программирование\лабы\2\вариант 1\lab2\main.cpp
;	COMDAT ?__empty_global_delete@@YAXPAX@Z
_TEXT	SEGMENT
___formal$ = 8						; size = 4
?__empty_global_delete@@YAXPAX@Z PROC			; __empty_global_delete, COMDAT

; 80   : }

  00000	55		 push	 ebp
  00001	8b ec		 mov	 ebp, esp
  00003	81 ec c0 00 00
	00		 sub	 esp, 192		; 000000c0H
  00009	53		 push	 ebx
  0000a	56		 push	 esi
  0000b	57		 push	 edi
  0000c	8d bd 40 ff ff
	ff		 lea	 edi, DWORD PTR [ebp-192]
  00012	b9 30 00 00 00	 mov	 ecx, 48			; 00000030H
  00017	b8 cc cc cc cc	 mov	 eax, -858993460		; ccccccccH
  0001c	f3 ab		 rep stosd
  0001e	5f		 pop	 edi
  0001f	5e		 pop	 esi
  00020	5b		 pop	 ebx
  00021	8b e5		 mov	 esp, ebp
  00023	5d		 pop	 ebp
  00024	c3		 ret	 0
?__empty_global_delete@@YAXPAX@Z ENDP			; __empty_global_delete
_TEXT	ENDS
END
